(lp0
I1505682464
aI1505683073
aI1505683683
aI1505684298
aI1505684914
aI1505685530
aI1505686147
aI1505686766
aI1505687387
aI1505688009
aI1505688634
aI1505689260
aI1505689887
aI1505690516
aI1505691147
aI1505691780
aI1505692413
aI1505693049
aI1505693687
aI1505694326
aI1505694966
aI1505695608
aI1505696250
aI1505696893
aI1505697541
aI1505698190
aI1505698839
aI1505699490
a.