(lp0
I1508576128
aI1508576737
aI1508577349
aI1508577962
aI1508578576
aI1508579193
aI1508579810
aI1508580430
aI1508581051
aI1508581674
aI1508582299
aI1508582926
aI1508583554
aI1508584184
aI1508584815
aI1508585447
aI1508586081
aI1508586717
aI1508587354
aI1508587994
aI1508588634
aI1508589276
aI1508589919
aI1508590563
aI1508591209
aI1508591856
aI1508592506
aI1508593157
aI1508593809
aI1508594462
aI1508595117
aI1508595773
aI1508596430
aI1508597090
aI1508597752
aI1508598415
aI1508599079
aI1508599745
aI1508600413
aI1508601081
aI1508601751
aI1508602422
aI1508603097
aI1508603772
aI1508604450
aI1508605128
a.