(lp0
I1505432047
aI1505432656
aI1505433268
aI1505433881
aI1505434496
aI1505435113
aI1505435730
aI1505436349
aI1505436970
aI1505437596
aI1505438220
aI1505438847
aI1505439475
aI1505440104
aI1505440735
aI1505441367
aI1505442005
aI1505442641
aI1505443278
aI1505443916
aI1505444556
aI1505445197
aI1505445839
aI1505446483
aI1505447128
aI1505447776
aI1505448425
aI1505449076
aI1505449729
aI1505450382
aI1505451037
aI1505451693
aI1505452351
aI1505453010
aI1505453671
aI1505454334
aI1505454998
aI1505455663
aI1505456331
aI1505456999
aI1505457669
aI1505458340
aI1505459014
aI1505459689
aI1505460366
aI1505461042
aI1505461720
aI1505462400
aI1505463080
aI1505463764
aI1505464447
aI1505465134
aI1505465820
aI1505466509
aI1505467199
aI1505467889
aI1505468584
aI1505469278
aI1505469974
aI1505470672
aI1505471372
aI1505472073
aI1505472776
aI1505473480
aI1505474185
aI1505474890
aI1505475598
aI1505476307
aI1505477018
aI1505477731
aI1505478445
aI1505479161
aI1505479879
aI1505480597
aI1505481318
aI1505482040
aI1505482764
aI1505483488
aI1505484215
aI1505484945
aI1505485674
aI1505486404
aI1505487136
aI1505487869
aI1505488609
aI1505489346
aI1505490089
aI1505490830
aI1505491572
aI1505492315
aI1505493058
aI1505493804
aI1505494552
aI1505495299
aI1505496049
aI1505496802
aI1505497556
aI1505498312
aI1505499066
aI1505499823
aI1505500582
aI1505501348
aI1505502111
aI1505502875
aI1505503642
aI1505504414
aI1505505186
aI1505505959
aI1505506731
aI1505507505
aI1505508281
aI1505509056
aI1505509834
aI1505510614
a.