(lp0
I1505170633
aI1505171243
aI1505171854
aI1505172468
aI1505173082
aI1505173699
aI1505174316
aI1505174941
aI1505175562
aI1505176185
aI1505176810
aI1505177435
aI1505178065
aI1505178696
aI1505179332
aI1505179964
aI1505180601
aI1505181243
aI1505181882
aI1505182522
aI1505183162
aI1505183804
aI1505184446
aI1505185090
aI1505185735
a.