(lp0
I1505682464
aI1505683073
aI1505683683
aI1505684298
aI1505684914
aI1505685530
aI1505686147
aI1505686766
aI1505687387
aI1505688009
aI1505688634
aI1505689260
aI1505689887
aI1505690516
aI1505691147
aI1505691780
aI1505692413
aI1505693049
aI1505693687
aI1505694326
aI1505694966
aI1505695608
aI1505696250
aI1505696893
aI1505697541
aI1505698190
aI1505698839
aI1505699490
aI1505700146
aI1505700801
aI1505701459
aI1505702116
aI1505702774
aI1505703434
aI1505704096
aI1505704759
aI1505705424
aI1505706090
aI1505706757
aI1505707426
aI1505708096
aI1505708768
aI1505709441
aI1505710116
aI1505710792
aI1505711468
aI1505712147
aI1505712827
aI1505713507
aI1505714190
aI1505714876
aI1505715563
aI1505716253
aI1505716943
aI1505717636
aI1505718329
aI1505719022
aI1505719717
aI1505720412
aI1505721110
aI1505721810
aI1505722511
aI1505723214
aI1505723919
aI1505724625
aI1505725333
aI1505726040
aI1505726751
aI1505727461
aI1505728176
aI1505728891
aI1505729608
aI1505730325
aI1505731048
aI1505731770
aI1505732493
aI1505733219
aI1505733943
aI1505734670
aI1505735398
aI1505736128
aI1505736859
aI1505737592
aI1505738327
aI1505739062
aI1505739798
aI1505740538
aI1505741279
aI1505742021
aI1505742766
aI1505743510
aI1505744255
aI1505745003
aI1505745753
aI1505746503
aI1505747256
aI1505748009
aI1505748769
aI1505749527
aI1505750285
aI1505751046
aI1505751807
aI1505752571
aI1505753334
aI1505754101
aI1505754869
aI1505755637
aI1505756407
aI1505757178
aI1505757951
aI1505758726
aI1505759502
aI1505760280
aI1505761059
aI1505761839
aI1505762621
aI1505763406
aI1505764192
aI1505764982
aI1505765774
aI1505766568
aI1505767360
aI1505768153
aI1505768949
aI1505769747
aI1505770548
aI1505771351
aI1505772164
aI1505772969
aI1505773774
aI1505774581
aI1505775390
aI1505776200
aI1505777015
aI1505777827
aI1505778640
aI1505779456
aI1505780276
aI1505781098
aI1505781921
aI1505782741
aI1505783564
aI1505784387
aI1505785212
aI1505786037
a.