(lp0
I1504053071
aI1504053681
aI1504054292
aI1504054906
aI1504055522
aI1504056138
aI1504056756
aI1504057376
aI1504057997
aI1504058621
aI1504059245
aI1504059871
aI1504060499
aI1504061129
aI1504061759
aI1504062392
aI1504063026
aI1504063661
aI1504064298
aI1504064938
aI1504065578
aI1504066219
aI1504066862
aI1504067506
aI1504068153
aI1504068803
aI1504069453
aI1504070105
aI1504070759
aI1504071414
aI1504072070
aI1504072727
aI1504073386
aI1504074045
aI1504074706
aI1504075369
aI1504076034
aI1504076699
aI1504077365
aI1504078034
aI1504078704
aI1504079375
aI1504080049
aI1504080723
aI1504081400
aI1504082079
aI1504082758
aI1504083439
aI1504084121
aI1504084805
aI1504085490
aI1504086178
aI1504086866
aI1504087557
aI1504088248
aI1504088943
aI1504089637
aI1504090333
aI1504091030
aI1504091729
aI1504092430
aI1504093134
aI1504093839
aI1504094544
aI1504095253
aI1504095964
aI1504096677
aI1504097388
aI1504098102
aI1504098816
aI1504099533
aI1504100252
aI1504100970
aI1504101691
aI1504102412
aI1504103136
aI1504103862
aI1504104589
aI1504105318
aI1504106050
aI1504106781
aI1504107514
aI1504108248
aI1504108983
aI1504109720
aI1504110459
aI1504111200
aI1504111946
aI1504112693
aI1504113439
aI1504114186
aI1504114935
aI1504115684
aI1504116435
aI1504117187
aI1504117943
aI1504118699
aI1504119458
aI1504120218
aI1504120979
aI1504121741
aI1504122505
aI1504123270
aI1504124037
aI1504124806
aI1504125575
aI1504126346
aI1504127119
aI1504127894
aI1504128671
aI1504129448
aI1504130227
aI1504131009
aI1504131791
aI1504132575
aI1504133362
aI1504134149
aI1504134937
aI1504135727
aI1504136520
aI1504137311
a.