(lp0
I1507354204
aI1507354814
aI1507355424
aI1507356037
aI1507356652
aI1507357268
aI1507357886
aI1507358505
aI1507359126
aI1507359749
aI1507360373
aI1507360998
aI1507361626
aI1507362255
aI1507362886
aI1507363518
aI1507364152
aI1507364787
aI1507365424
aI1507366062
aI1507366702
aI1507367343
aI1507367985
aI1507368629
aI1507369274
aI1507369922
aI1507370572
aI1507371224
aI1507371877
aI1507372531
aI1507373187
aI1507373843
aI1507374502
aI1507375159
aI1507375820
aI1507376483
aI1507377147
aI1507377813
aI1507378480
aI1507379148
aI1507379817
aI1507380489
aI1507381160
aI1507381835
aI1507382511
aI1507383188
aI1507383868
aI1507384547
aI1507385229
aI1507385913
aI1507386599
aI1507387287
aI1507387975
aI1507388665
aI1507389356
aI1507390049
aI1507390743
aI1507391438
aI1507392137
aI1507392837
aI1507393537
aI1507394239
aI1507394943
aI1507395651
aI1507396360
aI1507397070
aI1507397783
aI1507398496
aI1507399212
aI1507399924
aI1507400639
aI1507401358
aI1507402079
aI1507402799
aI1507403522
aI1507404246
aI1507404972
aI1507405699
aI1507406426
aI1507407157
a.