(lp0
I1507354204
aI1507354814
aI1507355424
aI1507356037
aI1507356652
aI1507357268
aI1507357886
aI1507358505
aI1507359126
aI1507359749
aI1507360373
aI1507360998
aI1507361626
aI1507362255
aI1507362886
aI1507363518
aI1507364152
aI1507364787
aI1507365424
aI1507366062
aI1507366702
aI1507367343
aI1507367985
aI1507368629
aI1507369274
aI1507369922
aI1507370572
aI1507371224
aI1507371877
aI1507372531
aI1507373187
aI1507373843
aI1507374502
aI1507375159
aI1507375820
aI1507376483
aI1507377147
aI1507377813
aI1507378480
aI1507379148
aI1507379817
aI1507380489
aI1507381160
aI1507381835
aI1507382511
aI1507383188
aI1507383868
aI1507384547
aI1507385229
aI1507385913
aI1507386599
aI1507387287
aI1507387975
aI1507388665
aI1507389356
aI1507390049
aI1507390743
aI1507391438
aI1507392137
aI1507392837
aI1507393537
aI1507394239
aI1507394943
aI1507395651
aI1507396360
aI1507397070
aI1507397783
aI1507398496
aI1507399212
aI1507399924
aI1507400639
aI1507401358
aI1507402079
aI1507402799
aI1507403522
aI1507404246
aI1507404972
aI1507405699
aI1507406426
aI1507407157
aI1507407892
aI1507408626
aI1507409363
aI1507410101
aI1507410840
aI1507411581
aI1507412322
aI1507413066
aI1507413811
aI1507414555
aI1507415301
aI1507416048
aI1507416797
aI1507417546
aI1507418297
aI1507419051
aI1507419810
aI1507420571
aI1507421334
aI1507422096
aI1507422858
aI1507423620
aI1507424385
aI1507425150
aI1507425918
aI1507426686
aI1507427457
aI1507428231
aI1507429005
aI1507429779
aI1507430555
aI1507431331
aI1507432110
aI1507432891
aI1507433674
aI1507434458
aI1507435244
aI1507436031
aI1507436820
aI1507437611
aI1507438401
aI1507439193
aI1507439987
aI1507440784
aI1507441580
aI1507442378
aI1507443179
aI1507443980
aI1507444785
aI1507445588
aI1507446393
aI1507447200
aI1507448010
aI1507448818
aI1507449630
aI1507450444
aI1507451258
aI1507452074
aI1507452889
aI1507453707
aI1507454531
aI1507455353
aI1507456178
aI1507457003
aI1507457831
a.