(lp0
I1507561481
aI1507562090
aI1507562701
aI1507563315
aI1507563929
aI1507564545
aI1507565162
aI1507565782
aI1507566403
aI1507567026
aI1507567650
aI1507568276
aI1507568905
aI1507569534
aI1507570165
aI1507570796
aI1507571431
aI1507572068
aI1507572706
aI1507573344
aI1507573984
aI1507574625
aI1507575268
aI1507575911
aI1507576557
aI1507577205
aI1507577856
aI1507578508
aI1507579162
aI1507579816
aI1507580472
aI1507581129
aI1507581788
aI1507582449
aI1507583111
aI1507583776
aI1507584442
aI1507585109
aI1507585777
aI1507586447
aI1507587118
aI1507587791
aI1507588465
aI1507589143
aI1507589821
aI1507590501
aI1507591183
aI1507591866
aI1507592550
aI1507593234
aI1507593922
aI1507594611
aI1507595302
aI1507595995
aI1507596689
aI1507597384
aI1507598081
aI1507598778
aI1507599477
aI1507600178
aI1507600881
aI1507601582
aI1507602287
aI1507602993
aI1507603699
aI1507604407
a.