(lp0
I1506200322
aI1506200932
aI1506201543
aI1506202156
aI1506202771
aI1506203387
aI1506204004
aI1506204623
aI1506205244
aI1506205867
aI1506206491
aI1506207117
aI1506207745
aI1506208374
aI1506209005
aI1506209636
aI1506210271
aI1506210906
aI1506211543
aI1506212182
aI1506212822
aI1506213463
aI1506214106
a.