(dp0
VETH-WINGS
p1
(lp2
F151.69312278
aF153.89313159
asVBTC-DYN
p3
(lp4
F9.28186007
aF9.28186007
asVBTC-OK
p5
(lp6
F359.58706454
aF401.43897851
asVBTC-SEQ
p7
(lp8
F4.77381394
aF4.68047529
asVBTC-ABY
p9
(lp10
F18.80085613
aF18.86584058
asVUSDT-BTC
p11
(lp12
F62354032.19466421
aF63220950.0798369
asVBTC-TX
p13
(lp14
F4.05660459
aF4.02828007
asVBTC-NMR
p15
(lp16
F143.93168998
aF143.81602113
asVETH-ADT
p17
(lp18
F187.98997809
aF235.64120048
asVETH-NEO
p19
(lp20
F21387.72854278
aF21506.27610218
asVBTC-TRUST
p21
(lp22
F4.82657701
aF4.82657701
asVETH-WAVES
p23
(lp24
F462.33482362
aF462.33482362
asVETH-DGB
p25
(lp26
F393.87484515
aF394.81402395
asVETH-STORJ
p27
(lp28
F153.3675845
aF152.94877567
asVETH-DGD
p29
(lp30
F162.84993215
aF162.84993215
asVBTC-GOLOS
p31
(lp32
F7.97363588
aF7.97564083
asVBTC-DAR
p33
(lp34
F9.67075584
aF9.66906505
asVBTC-VOX
p35
(lp36
F29.30220393
aF30.21539807
asVBTC-XWC
p37
(lp38
F19.15975844
aF19.20143669
asVBTC-SYNX
p39
(lp40
F20.44520927
aF20.3709965
asVBTC-MLN
p41
(lp42
F24.91512704
aF24.7950667
asVBTC-NXC
p43
(lp44
F17.26760015
aF17.2761291
asVBTC-WAVES
p45
(lp46
F558.42756139
aF559.57256581
asVBTC-EGC
p47
(lp48
F7.668095
aF7.6703876
asVBTC-CVC
p49
(lp50
F808.80779295
aF813.05247625
asVBTC-ETC
p51
(lp52
F813.34991125
aF818.83303541
asVBTC-STRAT
p53
(lp54
F1767.35532741
aF1788.75760349
asVBTC-IOP
p55
(lp56
F5.9451907
aF6.13936399
asVBTC-ETH
p57
(lp58
F7846.27427927
aF7956.280646
asVBTC-CPC
p59
(lp60
F23.76040877
aF18.48608916
asVBTC-CLOAK
p61
(lp62
F67.54573605
aF67.48772969
asVBTC-CLAM
p63
(lp64
F9.40211923
aF9.6395012
asVBTC-SNT
p65
(lp66
F740.76458866
aF739.69806768
asVBTC-TRST
p67
(lp68
F139.45914042
aF139.08114522
asVETH-SNT
p69
(lp70
F985.67079608
aF965.84841254
asVETH-XEM
p71
(lp72
F376.29939516
aF377.59067887
asVBTC-SBD
p73
(lp74
F11.06881129
aF11.05673105
asVBTC-CANN
p75
(lp76
F17.01620287
aF17.01747979
asVBTC-SWT
p77
(lp78
F9.37098772
aF9.37098772
asVBTC-BLK
p79
(lp80
F58.33631322
aF58.33990783
asVBTC-UNO
p81
(lp82
F9.37551761
aF9.63030005
asVETH-OMG
p83
(lp84
F19009.42959511
aF19007.97816947
asVBTC-DASH
p85
(lp86
F574.06045186
aF566.45861741
asVETH-QTUM
p87
(lp88
F10881.52474204
aF10805.00700642
asVBTC-FUN
p89
(lp90
F126.87785056
aF129.70665409
asVBTC-MAID
p91
(lp92
F276.16496544
aF292.67055466
asVBTC-ZEN
p93
(lp94
F80.25108532
aF80.2546624
asVBTC-AEON
p95
(lp96
F6.58001039
aF6.58001039
asVBTC-NEO
p97
(lp98
F21414.70727349
aF21633.74499871
asVETH-MCO
p99
(lp100
F3808.39788996
aF3808.97604767
asVBTC-MONA
p101
(lp102
F158.72819503
aF159.16161716
asVETH-XLM
p103
(lp104
F86.73871745
aF86.73871745
asVBTC-EDG
p105
(lp106
F252.89218301
aF253.31590251
asVETH-TIME
p107
(lp108
F47.22815762
aF47.22815762
asVBTC-EBST
p109
(lp110
F14.11936272
aF14.16410395
asVBTC-START
p111
(lp112
F6.34975333
aF6.3528729
asVBTC-FLO
p113
(lp114
F42.15722863
aF42.23507244
asVBTC-MYST
p115
(lp116
F87.51298061
aF87.41696342
asVBTC-MCO
p117
(lp118
F3416.33990408
aF3409.29370302
asVBTC-WINGS
p119
(lp120
F202.99813346
aF202.76777258
asVBTC-XMY
p121
(lp122
F19.77945059
aF20.01866809
asVBTC-MTL
p123
(lp124
F1008.73489994
aF1009.81538925
asVETH-TRST
p125
(lp126
F100.18259362
aF99.98480738
asVBTC-PDC
p127
(lp128
F9.82357659
aF9.82357659
asVETH-CVC
p129
(lp130
F1117.88443387
aF1132.69098283
asVETH-XMR
p131
(lp132
F772.34707801
aF763.44557298
asVBTC-PPC
p133
(lp134
F23.83576328
aF24.28882198
asVETH-LTC
p135
(lp136
F2254.55009012
aF2288.84897027
asVUSDT-LTC
p137
(lp138
F3857759.20376219
aF3870435.50203775
asVBTC-ADT
p139
(lp140
F68.09376169
aF68.53848329
asVBTC-LUN
p141
(lp142
F137.08860994
aF137.30070037
asVBTC-DGB
p143
(lp144
F2613.77748533
aF2619.26827955
asVETH-ETC
p145
(lp146
F1570.22324752
aF1577.31556286
asVBTC-RISE
p147
(lp148
F3070.19813458
aF3070.9793167
asVETH-PTOY
p149
(lp150
F184.13046543
aF184.13046543
asVBTC-ADX
p151
(lp152
F919.10939609
aF933.84443459
asVBTC-VIA
p153
(lp154
F320.92458746
aF319.56325729
asVBTC-PINK
p155
(lp156
F278.5107954
aF278.94537302
asVBTC-PIVX
p157
(lp158
F544.31966508
aF550.33117842
asVETH-GNT
p159
(lp160
F896.68201217
aF908.11877651
asVBTC-XBB
p161
(lp162
F22.89455245
aF22.89455245
asVBTC-DTB
p163
(lp164
F39.35665559
aF39.82247656
asVBTC-NXS
p165
(lp166
F354.69356358
aF354.85996404
asVBTC-AGRS
p167
(lp168
F14.31353964
aF14.27306989
asVBTC-GEO
p169
(lp170
F20.19212428
aF20.21736133
asVBTC-SHIFT
p171
(lp172
F72.2498711
aF72.52772491
asVBTC-SC
p173
(lp174
F584.41984133
aF584.47500936
asVBTC-TIME
p175
(lp176
F25.14071319
aF25.12572694
asVBTC-CLUB
p177
(lp178
F7.87726135
aF7.85316778
asVETH-CFI
p179
(lp180
F96.06198737
aF96.16148764
asVBTC-AUR
p181
(lp182
F3.24970611
aF3.24673054
asVBTC-EXP
p183
(lp184
F119.69048384
aF120.76227757
asVBTC-NXT
p185
(lp186
F279.07657846
aF279.24503342
asVBTC-XLM
p187
(lp188
F140.83968124
aF142.28731361
asVETH-GNO
p189
(lp190
F50.3759266
aF50.38506695
asVBTC-DOPE
p191
(lp192
F7.25998272
aF7.31447328
asVETH-HMQ
p193
(lp194
F319.31043471
aF319.87583077
asVBTC-POT
p195
(lp196
F58.19199386
aF57.80603638
asVBTC-BNT
p197
(lp198
F117.28357784
aF117.6612983
asVETH-ADX
p199
(lp200
F1116.29266893
aF1158.29053692
asVBTC-ARK
p201
(lp202
F1116.83406259
aF1133.16255286
asVBTC-DRACO
p203
(lp204
F7.91352872
aF7.8661289
asVBTC-ZEC
p205
(lp206
F702.75547278
aF715.99217463
asVBTC-MUE
p207
(lp208
F27.57712665
aF26.80530048
asVBTC-AMP
p209
(lp210
F57.89585372
aF57.69235549
asVBTC-SAFEX
p211
(lp212
F87.36433352
aF87.79551859
asVBTC-OMNI
p213
(lp214
F14.00998496
aF14.03338659
asVBTC-PTC
p215
(lp216
F5.39893187
aF5.66805452
asVBTC-LGD
p217
(lp218
F86.93957829
aF86.96759742
asVBTC-ARDR
p219
(lp220
F115.13450879
aF114.44138058
asVBTC-SNGLS
p221
(lp222
F35.54947392
aF35.96722927
asVBTC-SLR
p223
(lp224
F15.18615644
aF15.69916125
asVBTC-SLS
p225
(lp226
F4.35315395
aF4.3673919
asVETH-1ST
p227
(lp228
F141.41079154
aF141.41079154
asVETH-PAY
p229
(lp230
F4038.79869054
aF4066.92627039
asVETH-BAT
p231
(lp232
F1210.87951158
aF1219.37654635
asVBTC-GNT
p233
(lp234
F1096.25443716
aF1091.03715731
asVBTC-GUP
p235
(lp236
F55.29494545
aF56.1344351
asVETH-SC
p237
(lp238
F170.19696375
aF171.12155269
asVBTC-UNB
p239
(lp240
F13.73629454
aF13.76978288
asVBTC-COVAL
p241
(lp242
F24.79299404
aF25.89864992
asVBTC-ENRG
p243
(lp244
F35.24426995
aF34.34227657
asVETH-FUN
p245
(lp246
F210.44979578
aF210.5607468
asVETH-BCC
p247
(lp248
F2474.04616919
aF2535.91312603
asVBTC-XVC
p249
(lp250
F9.54530514
aF9.78473957
asVBTC-RADS
p251
(lp252
F228.24629052
aF226.98564747
asVBTC-XVG
p253
(lp254
F1473.05945028
aF1473.22074764
asVETH-LGD
p255
(lp256
F29.45584801
aF29.92862154
asVBTC-EFL
p257
(lp258
F5.36815436
aF5.36815436
asVETH-SNGLS
p259
(lp260
F193.98702826
aF203.16270604
asVBTC-GNO
p261
(lp262
F38.50337013
aF38.15778559
asVUSDT-ETC
p263
(lp264
F1202808.9776958
aF1208152.12145093
asVBTC-GCR
p265
(lp266
F10.06255441
aF10.0641215
asVBTC-XEL
p267
(lp268
F478.87744384
aF479.32847839
asVBTC-XEM
p269
(lp270
F612.00147681
aF637.95938908
asVBTC-NBT
p271
(lp272
F81.0636901
aF84.55482505
asVETH-FCT
p273
(lp274
F90.45426534
aF94.14117201
asVBTC-INFX
p275
(lp276
F6.35116067
aF6.3532506
asVUSDT-NEO
p277
(lp278
F11752758.88930743
aF11818848.08909774
asVBTC-HMQ
p279
(lp280
F110.98616172
aF110.69000921
asVBTC-SIB
p281
(lp282
F14.24186631
aF14.24934844
asVBTC-BLOCK
p283
(lp284
F140.10607339
aF139.38936732
asVBTC-FLDC
p285
(lp286
F17.22195921
aF17.22151667
asVBTC-LBC
p287
(lp288
F199.82561983
aF199.8539475
asVETH-MYST
p289
(lp290
F204.8864831
aF204.8864831
asVETH-TKN
p291
(lp292
F523.99690409
aF525.02651379
asVBTC-BAT
p293
(lp294
F800.36373464
aF803.483666
asVBTC-BURST
p295
(lp296
F839.6504317
aF840.71337244
asVBTC-2GIVE
p297
(lp298
F15.74055762
aF15.80502666
asVBTC-GRC
p299
(lp300
F17.00791567
aF17.03050361
asVBTC-BAY
p301
(lp302
F23.27766678
aF22.99094764
asVBTC-NLG
p303
(lp304
F62.05568336
aF62.8992339
asVBTC-ANT
p305
(lp306
F113.04497132
aF112.21653358
asVBTC-TKN
p307
(lp308
F333.1537997
aF333.19523403
asVBTC-DMD
p309
(lp310
F22.67430235
aF22.24388187
asVBTC-TKS
p311
(lp312
F8.72829675
aF8.72829675
asVBTC-GRS
p313
(lp314
F17.90587578
aF18.08418153
asVUSDT-BCC
p315
(lp316
F2954709.29967911
aF2948603.13997368
asVBTC-FCT
p317
(lp318
F206.72226706
aF214.70559845
asVBTC-XDN
p319
(lp320
F39.73667269
aF39.8858866
asVETH-LUN
p321
(lp322
F185.98560128
aF185.98560128
asVBTC-QTUM
p323
(lp324
F5771.02724357
aF5811.86387873
asVBTC-DOGE
p325
(lp326
F165.14488163
aF165.96992681
asVBTC-LTC
p327
(lp328
F3004.61383001
aF3028.46859044
asVBTC-LMC
p329
(lp330
F32.55108868
aF32.83699467
asVBTC-BLITZ
p331
(lp332
F29.98798994
aF30.0075197
asVBTC-GBYTE
p333
(lp334
F308.67505246
aF309.00924877
asVETH-XRP
p335
(lp336
F1645.58525973
aF1656.84994664
asVETH-ANT
p337
(lp338
F143.06341136
aF140.05558377
asVETH-CRB
p339
(lp340
F31.61633632
aF31.61633632
asVBTC-STORJ
p341
(lp342
F292.82333941
aF292.74264169
asVUSDT-XRP
p343
(lp344
F1926368.32987935
aF1968975.6538177
asVBTC-MEME
p345
(lp346
F7.89674643
aF7.89674643
asVBTC-CFI
p347
(lp348
F72.18066313
aF73.09280576
asVBTC-XMR
p349
(lp350
F891.80912378
aF893.64409861
asVBTC-DGD
p351
(lp352
F43.14698592
aF43.18158605
asVBTC-NEOS
p353
(lp354
F15.71512198
aF15.82802898
asVBTC-QRL
p355
(lp356
F66.7569584
aF66.92919485
asVBTC-XAUR
p357
(lp358
F20.20242949
aF20.17538689
asVUSDT-XMR
p359
(lp360
F847476.64637197
aF878726.33924863
asVBTC-BYC
p361
(lp362
F2.56409456
aF2.56409456
asVETH-NMR
p363
(lp364
F225.33367072
aF239.62672078
asVBTC-STEEM
p365
(lp366
F157.05549027
aF158.92291484
asVUSDT-ZEC
p367
(lp368
F891818.22734376
aF894871.01735913
asVBTC-IOC
p369
(lp370
F38.43545649
aF38.30770744
asVBTC-RBY
p371
(lp372
F9.66216237
aF9.67081979
asVBTC-XMG
p373
(lp374
F3.08925401
aF3.13462282
asVBTC-MUSIC
p375
(lp376
F83.50210453
aF83.23260202
asVBTC-UBQ
p377
(lp378
F342.63379184
aF344.52580869
asVETH-BTS
p379
(lp380
F152.2235098
aF152.2235098
asVETH-QRL
p381
(lp382
F105.43127398
aF105.22134588
asVBTC-SNRG
p383
(lp384
F10.428224
aF10.42877437
asVBTC-INCNT
p385
(lp386
F16.50546195
aF16.3812505
asVBTC-GLD
p387
(lp388
F16.30089163
aF16.37427849
asVBTC-ION
p389
(lp390
F20.28080908
aF20.21849833
asVBTC-KORE
p391
(lp392
F89.83650442
aF88.18717525
asVBTC-PTOY
p393
(lp394
F253.36254467
aF255.75690735
asVBTC-SPR
p395
(lp396
F94.67281936
aF94.74371846
asVBTC-CURE
p397
(lp398
F4.74308915
aF4.73416664
asVBTC-DCR
p399
(lp400
F176.57913396
aF179.42061507
asVBTC-DCT
p401
(lp402
F230.56790447
aF231.53033674
asVBTC-KMD
p403
(lp404
F5313.8636127
aF5316.15887855
asVBTC-BSD
p405
(lp406
F9.67060426
aF9.68231835
asVUSDT-DASH
p407
(lp408
F600384.84041092
aF609960.57031836
asVBTC-FAIR
p409
(lp410
F12.26706741
aF13.15383393
asVETH-DASH
p411
(lp412
F763.37897177
aF767.48879067
asVBTC-QWARK
p413
(lp414
F36.61062187
aF36.16684526
asVBTC-EMC
p415
(lp416
F89.75778611
aF90.85534276
asVBTC-LSK
p417
(lp418
F1570.92435927
aF1594.92386516
asVBTC-GAM
p419
(lp420
F3.51987882
aF3.51987882
asVBTC-PART
p421
(lp422
F75.54824247
aF75.89088184
asVBTC-APX
p423
(lp424
F16.26441663
aF17.57770825
asVETH-MTL
p425
(lp426
F233.05606836
aF233.26170121
asVBTC-BCY
p427
(lp428
F13.01925564
aF13.10895211
asVBTC-EXCL
p429
(lp430
F14.04919468
aF14.05426268
asVBTC-SPHR
p431
(lp432
F20.35550118
aF20.36031992
asVBTC-PAY
p433
(lp434
F3069.00164806
aF3073.46541105
asVBTC-FTC
p435
(lp436
F13.4695866
aF13.45442452
asVBTC-VRM
p437
(lp438
F8.68591935
aF8.69886073
asVBTC-BITB
p439
(lp440
F41.42919578
aF40.93566526
asVBTC-BTS
p441
(lp442
F622.87101112
aF623.17831106
asVETH-ZEC
p443
(lp444
F1100.75245289
aF1104.73666141
asVETH-BNT
p445
(lp446
F828.45126769
aF828.52210053
asVBTC-XST
p447
(lp448
F3.35228271
aF3.36755778
asVBTC-BCC
p449
(lp450
F4078.17432591
aF3967.00758965
asVBTC-REP
p451
(lp452
F57.03686857
aF57.97417794
asVBTC-BTCD
p453
(lp454
F362.53562574
aF364.23896395
asVBTC-BTA
p455
(lp456
F11.47706559
aF11.68625297
asVETH-RLC
p457
(lp458
F154.30613426
aF154.30613426
asVBTC-CRB
p459
(lp460
F17.47796207
aF17.50500248
asVBTC-RLC
p461
(lp462
F103.14640857
aF103.03612704
asVBTC-ERC
p463
(lp464
F104.28762625
aF103.8924465
asVBTC-BRK
p465
(lp466
F6.79237929
aF6.926647
asVBTC-NAV
p467
(lp468
F1439.27488582
aF1442.91469149
asVBTC-PKB
p469
(lp470
F9.27294208
aF9.16437521
asVBTC-TRIG
p471
(lp472
F1503.62448701
aF1513.11141498
asVETH-REP
p473
(lp474
F39.22827493
aF41.22491345
asVBTC-OMG
p475
(lp476
F8838.10105187
aF8831.41964096
asVBTC-GBG
p477
(lp478
F4.00472916
aF4.04613986
asVBTC-XZC
p479
(lp480
F112.50969125
aF112.87427708
asVBTC-BRX
p481
(lp482
F13.24427825
aF13.37884672
asVBTC-SYS
p483
(lp484
F711.82309569
aF707.3838627
asVBTC-CRW
p485
(lp486
F23.74624453
aF24.46089206
asVBTC-RDD
p487
(lp488
F280.59137701
aF288.33472753
asVBTC-GAME
p489
(lp490
F318.55303316
aF317.48479774
asVETH-GUP
p491
(lp492
F47.02300906
aF47.02300906
asVBTC-1ST
p493
(lp494
F135.40377142
aF134.60081614
asVUSDT-ETH
p495
(lp496
F14049928.80776204
aF14415678.09559845
asVBTC-VTR
p497
(lp498
F13.67541482
aF13.67773154
asVBTC-EMC2
p499
(lp500
F16.8492996
aF16.86010316
asVBTC-XCP
p501
(lp502
F32.79784047
aF33.99727367
asVBTC-SWIFT
p503
(lp504
F54.6264834
aF54.80137879
asVBTC-THC
p505
(lp506
F6.58330844
aF6.56583688
asVETH-STRAT
p507
(lp508
F1335.88758941
aF1336.25781699
asVBTC-HKG
p509
(lp510
F15.89374608
aF15.89374608
asVBTC-VTC
p511
(lp512
F163.14278743
aF163.18413637
asVBTC-VRC
p513
(lp514
F41.47479557
aF42.11708058
asVBTC-ZCL
p515
(lp516
F37.52272679
aF39.49874609
asVBTC-XRP
p517
(lp518
F1781.48339018
aF1807.30527356
as.