(lp0
I1504156828
aI1504157438
aI1504158049
aI1504158662
aI1504159277
aI1504159894
aI1504160515
aI1504161134
aI1504161756
aI1504162379
aI1504163004
aI1504163630
aI1504164258
aI1504164887
aI1504165518
aI1504166150
aI1504166784
aI1504167420
aI1504168058
aI1504168696
aI1504169336
aI1504169978
aI1504170621
aI1504171265
aI1504171911
aI1504172560
aI1504173210
aI1504173862
aI1504174515
aI1504175168
aI1504175825
aI1504176481
aI1504177138
aI1504177797
aI1504178458
aI1504179121
aI1504179785
aI1504180450
aI1504181118
aI1504181786
aI1504182456
aI1504183127
aI1504183802
aI1504184484
aI1504185160
aI1504185838
aI1504186517
aI1504187199
aI1504187880
aI1504188563
aI1504189249
aI1504189936
aI1504190626
aI1504191315
aI1504192007
aI1504192700
aI1504193395
aI1504194091
aI1504194788
aI1504195487
aI1504196189
aI1504196891
aI1504197595
aI1504198300
aI1504199008
aI1504199719
aI1504200430
aI1504201142
aI1504201855
aI1504202571
aI1504203288
aI1504204005
aI1504204725
aI1504205445
aI1504206167
aI1504206890
aI1504207615
aI1504208343
aI1504209072
aI1504209802
aI1504210533
aI1504211266
aI1504212001
aI1504212736
aI1504213474
aI1504214214
aI1504214956
aI1504215697
aI1504216440
aI1504217186
aI1504217934
aI1504218682
aI1504219430
a.