(lp0
I1507146866
aI1507147476
aI1507148087
aI1507148701
aI1507149321
aI1507149937
aI1507150555
aI1507151175
aI1507151796
aI1507152419
aI1507153044
aI1507153670
aI1507154298
aI1507154927
aI1507155558
aI1507156189
aI1507156823
aI1507157458
aI1507158096
aI1507158734
aI1507159374
aI1507160016
aI1507160658
aI1507161302
aI1507161948
aI1507162597
aI1507163247
aI1507163898
aI1507164551
aI1507165205
aI1507165862
aI1507166519
aI1507167177
aI1507167837
aI1507168500
aI1507169164
a.