(dp0
VETH-WINGS
p1
(lp2
F51.19675039
aF51.21501456
aF51.47075687
aF51.47075687
aF51.53236461
aF51.59384921
aF52.14473062
aF52.45359883
aF52.63123029
aF52.63123029
aF52.10234031
aF52.10234031
aF52.10234031
aF52.05285932
aF52.03285933
aF52.03285933
aF52.79413137
aF55.18668338
aF55.17005408
aF58.25528081
aF58.25528081
aF58.25528081
aF58.25528081
aF58.25528081
aF58.28374875
aF58.28374875
aF60.60005198
aF60.42215834
asVBTC-DYN
p3
(lp4
F3.33065946
aF3.33065946
aF3.33377892
aF3.33617442
aF3.33617442
aF3.36723271
aF3.36723271
aF3.36881642
aF3.36820736
aF3.36925955
aF3.2764223
aF3.2764223
aF3.2764223
aF3.2764223
aF3.2764223
aF3.2764223
aF3.2764223
aF3.27699615
aF3.27699615
aF3.28934883
aF3.25210431
aF3.25210431
aF3.25210431
aF3.23067986
aF3.18232469
aF3.18232469
aF3.18232469
aF3.18494099
asVBTC-OK
p5
(lp6
F2146.35227411
aF2155.29794179
aF2157.85585698
aF2151.90565581
aF2180.91019359
aF2197.04249976
aF2209.0491195
aF2211.5087355
aF2213.63418119
aF2230.52076125
aF2239.38001943
aF2241.82303263
aF2234.56599666
aF2241.40400117
aF2248.06229676
aF2254.930635
aF2278.88185976
aF2288.80810246
aF2302.75885387
aF2303.70659221
aF2299.0270348
aF2300.00175242
aF2304.27396703
aF2299.20824429
aF2292.3043969
aF2291.54046136
aF2254.71501917
aF2244.3048891
asVBTC-SEQ
p7
(lp8
F8.39087656
aF8.38415984
aF9.40015046
aF9.40107814
aF9.40189892
aF9.43879385
aF9.43879385
aF9.40371235
aF9.49496962
aF9.49915566
aF9.49975903
aF9.52006782
aF9.52254313
aF9.5482607
aF9.57421039
aF9.57557945
aF9.57557945
aF9.57360115
aF9.54834366
aF10.31335325
aF10.31486117
aF9.88209471
aF9.88299387
aF9.87488295
aF9.74435631
aF9.74435631
aF9.7450444
aF9.7371219
asVBTC-ABY
p9
(lp10
F13.83531905
aF13.80618228
aF13.81684603
aF13.81684603
aF13.9920401
aF14.19864038
aF14.19161563
aF14.19854781
aF14.19854781
aF14.19854781
aF13.84677651
aF13.84963431
aF13.83533598
aF13.83394237
aF13.44446719
aF13.43675612
aF13.46113878
aF13.52472377
aF13.52534377
aF13.56054161
aF13.56131661
aF13.5671841
aF13.5671841
aF13.15359308
aF13.01423816
aF13.08194061
aF13.10812043
aF13.12686662
asVUSDT-BTC
p11
(lp12
F31498526.08449113
aF31301701.1704341
aF31109730.13354536
aF31030090.00033018
aF31081804.4500213
aF30955287.75144332
aF30990669.25172229
aF31006523.06197586
aF30902474.18193138
aF30918673.81735658
aF30803721.03993909
aF30763565.28132801
aF30804625.21167638
aF30722125.58323804
aF30790549.04476933
aF30844288.9374111
aF30923408.86987822
aF30974972.39535902
aF30988581.97522913
aF30823708.77046479
aF30824442.6915306
aF30950879.653639
aF30910383.02023703
aF31107720.1163792
aF31049269.53320193
aF31154475.7129661
aF31440003.08339238
aF31389191.53893944
asVBTC-TX
p13
(lp14
F2.16470662
aF2.13903737
aF2.13903737
aF2.161217
aF2.16447714
aF2.21707778
aF2.21767063
aF2.21875797
aF2.21939777
aF2.21939777
aF2.21824281
aF2.21824281
aF2.26712825
aF2.26712825
aF2.25691026
aF2.25528006
aF2.25528006
aF2.22077813
aF2.22077813
aF2.22077813
aF2.22077813
aF2.18181032
aF2.18181032
aF2.21385048
aF2.21521218
aF2.23155451
aF2.23155451
aF2.23155451
asVBTC-NMR
p15
(lp16
F19.17922691
aF18.36415963
aF17.09152878
aF17.09152878
aF14.91180127
aF18.78724939
aF18.79773654
aF18.82294553
aF18.91135426
aF18.89922634
aF18.47606172
aF18.47606172
aF18.74324688
aF18.47487879
aF18.77756088
aF18.81147794
aF19.18595003
aF19.18843391
aF19.2079987
aF19.2877358
aF19.26813434
aF19.20121078
aF20.66135399
aF20.71075038
aF20.95704279
aF20.40756294
aF20.6803122
aF20.6803122
asVETH-ADT
p17
(lp18
F15.27917401
aF15.28014969
aF14.22180393
aF14.22180393
aF13.86442813
aF13.86442813
aF13.86442813
aF13.86442813
aF13.85400921
aF13.85400921
aF10.90446634
aF10.87682472
aF10.87682472
aF10.98107271
aF10.98107271
aF10.98107271
aF10.98107271
aF10.98107271
aF16.19730737
aF16.54244743
aF16.54244743
aF16.54244743
aF16.54244743
aF16.54244743
aF16.54244743
aF16.54244743
aF16.29927162
aF16.09167284
asVETH-NEO
p19
(lp20
F2434.65959059
aF2450.34316934
aF2501.94161556
aF2501.94161556
aF2504.33019867
aF2502.80805858
aF2477.29667033
aF2491.47039384
aF2407.51959415
aF2406.86591412
aF2405.21841463
aF2390.54733106
aF2350.01943343
aF2350.01943343
aF2324.51198568
aF2279.07531239
aF2279.76805558
aF2288.73398957
aF2286.07184599
aF2300.23368701
aF2300.23368701
aF2295.34247228
aF2268.02790658
aF2262.15296595
aF2270.37927834
aF2291.92139686
aF2367.85817631
aF2470.05845016
asVBTC-TRUST
p21
(lp22
F11.09751622
aF11.13332267
aF11.13332267
aF14.00623284
aF16.09928393
aF16.4927972
aF17.5689651
aF17.57592864
aF17.75305606
aF18.38084947
aF18.7765891
aF19.96109547
aF20.1121923
aF21.85108899
aF21.85580766
aF21.76554866
aF21.77452145
aF21.77752042
aF21.82474997
aF21.82474997
aF21.94628042
aF21.94678041
aF22.11088417
aF22.23787624
aF22.24008644
aF22.56141978
aF22.77196557
aF23.37783704
asVETH-WAVES
p23
(lp24
F95.06867595
aF95.06867595
aF95.06867595
aF95.18833976
aF95.18833976
aF95.20793958
aF95.20793958
aF95.10941503
aF95.10941503
aF95.02381618
aF96.44037618
aF96.44037618
aF96.27299701
aF96.27299701
aF96.27299701
aF96.27299701
aF96.27299701
aF96.27299701
aF96.27299701
aF96.27299701
aF96.27299701
aF96.27299701
aF96.27299701
aF97.61341333
aF99.96272885
aF100.10523562
aF100.06048142
aF95.76505544
asVETH-DGB
p25
(lp26
F50.99747187
aF50.99747187
aF58.62968688
aF58.62968688
aF58.62968688
aF58.62968688
aF58.62968688
aF58.62968688
aF58.01348473
aF58.5336487
aF60.92320495
aF60.92320495
aF60.92320495
aF60.92320495
aF60.92320495
aF60.92320495
aF60.88392495
aF59.9692178
aF59.9692178
aF59.9692178
aF59.9692178
aF58.37177832
aF58.37061754
aF58.37061754
aF61.47339238
aF61.47339238
aF67.71585115
aF67.71585115
asVETH-STORJ
p27
(lp28
F229.24925128
aF229.24925128
aF229.24925128
aF229.24925128
aF229.26527333
aF229.48433987
aF229.48433987
aF227.46626436
aF227.19071515
aF227.49090771
aF227.99785909
aF228.06741549
aF228.06741549
aF228.25836581
aF228.74626839
aF229.05792178
aF229.05792178
aF230.88376562
aF231.91591187
aF232.15549811
aF232.15549811
aF232.15549811
aF231.52528387
aF230.19668933
aF229.60360154
aF223.63029062
aF223.67673499
aF217.98384336
asVETH-DGD
p29
(lp30
F74.99292152
aF74.99292152
aF74.99292152
aF61.08540537
aF61.08540537
aF61.08540537
aF56.92118328
aF56.92118328
aF56.92118328
aF56.92118328
aF56.94718327
aF56.94718327
aF56.94718327
aF56.94718327
aF56.94718327
aF56.94718327
aF56.94718327
aF56.94718327
aF56.94718327
aF56.94718327
aF56.56089078
aF44.12540193
aF44.12540193
aF44.12540193
aF44.12540193
aF42.39673048
aF42.39673048
aF41.89269002
asVBTC-GOLOS
p31
(lp32
F2.66882335
aF2.66882335
aF2.67289511
aF2.79638698
aF2.91384565
aF2.92649658
aF2.9070986
aF2.95007872
aF2.95007872
aF2.95007872
aF2.95756217
aF2.99334849
aF3.05756886
aF3.05425741
aF3.07321119
aF3.07321119
aF3.07954461
aF3.07954461
aF3.13287096
aF3.15709281
aF3.15709281
aF3.16252002
aF3.16252002
aF3.16814052
aF3.16814052
aF3.16814052
aF3.16814052
aF3.15244595
asVBTC-DAR
p33
(lp34
F1802.8423805
aF1805.31477153
aF1813.00718363
aF1817.2282343
aF1818.28639812
aF1821.16078194
aF1823.48552562
aF1824.95356661
aF1827.04733138
aF1829.79389475
aF1837.37862941
aF1840.95659358
aF1843.52017849
aF1848.67231597
aF1851.5153145
aF1852.96607899
aF1854.09001324
aF1851.82433858
aF1855.48707988
aF1857.62610345
aF1861.00690054
aF1875.27198145
aF1878.17151141
aF1891.85618843
aF1896.18569838
aF1899.44890065
aF1906.36839711
aF1907.35111185
asVBTC-VOX
p35
(lp36
F146.93655965
aF147.52189669
aF148.01493885
aF148.57822379
aF148.76401549
aF149.28345204
aF149.49349754
aF150.59311259
aF151.01953463
aF151.51271319
aF151.76755078
aF156.55506552
aF157.66980218
aF158.46124404
aF161.04139696
aF161.78013377
aF163.15655565
aF164.38673833
aF165.02039017
aF165.36623797
aF165.36013533
aF166.1724745
aF166.09287731
aF165.31480717
aF165.2804056
aF165.64772605
aF166.77197569
aF167.34346993
asVBTC-XWC
p37
(lp38
F24.3145101
aF24.33001942
aF24.63791871
aF24.45802892
aF24.48448367
aF24.5250784
aF24.50256938
aF24.83186306
aF24.7719068
aF24.76251944
aF24.77509358
aF24.81779726
aF24.77839667
aF24.77839667
aF24.87887938
aF24.87887938
aF24.03066025
aF24.04312025
aF23.73441185
aF23.74439136
aF22.91835403
aF22.91835403
aF22.81329517
aF22.90460877
aF24.04827031
aF23.81460856
aF29.36449622
aF29.38427469
asVBTC-SYNX
p39
(lp40
F22.33156149
aF22.37047296
aF22.37047296
aF21.7140072
aF21.7140072
aF21.54894873
aF21.58743622
aF21.5948067
aF21.5948067
aF21.27993322
aF21.09140464
aF21.09387963
aF21.07895269
aF21.08456573
aF21.07277083
aF21.07277083
aF21.07127083
aF20.51899602
aF21.69680321
aF21.69955091
aF22.07412204
aF22.12325969
aF22.02382188
aF22.0588714
aF22.0588714
aF20.35995059
aF20.35828734
aF20.52178888
asVBTC-MLN
p41
(lp42
F4.1546539
aF4.24119873
aF4.29234068
aF4.3038737
aF4.3038737
aF4.3038737
aF4.2173471
aF4.21921109
aF4.24231857
aF4.15825175
aF4.15825175
aF4.15825175
aF4.17401353
aF4.17401353
aF4.17401353
aF4.16893884
aF4.16086272
aF4.17806359
aF4.17755219
aF4.17755219
aF4.17755219
aF4.17755219
aF4.17755219
aF4.1780725
aF4.1795924
aF4.1795924
aF4.1795924
aF4.18136591
asVBTC-NXC
p43
(lp44
F187.69421347
aF188.62069106
aF188.70859566
aF188.50632408
aF188.73206237
aF187.48168956
aF188.58309319
aF188.67116832
aF189.49292757
aF189.57726598
aF190.16278223
aF190.39049434
aF190.93249873
aF191.7109583
aF191.77508291
aF192.53371101
aF192.86706045
aF193.21488722
aF203.96953578
aF212.84628381
aF215.38658302
aF219.06340494
aF220.92753689
aF222.97489968
aF224.977209
aF226.13086884
aF240.0051671
aF244.5409294
asVBTC-WAVES
p45
(lp46
F159.36793309
aF161.03096959
aF162.09146938
aF162.76235677
aF163.98095384
aF163.68616606
aF161.95981342
aF164.2314616
aF164.36271102
aF164.34097566
aF164.8753793
aF164.80882525
aF163.91798804
aF163.92528562
aF163.4146997
aF163.88457107
aF163.59526913
aF163.70295439
aF163.727379
aF163.73911419
aF163.79411952
aF164.16742285
aF164.16236223
aF164.09475493
aF164.45902445
aF163.89056334
aF167.39446234
aF168.64371126
asVBTC-EGC
p47
(lp48
F44.4105908
aF44.40267314
aF44.82161095
aF44.91670433
aF45.0291221
aF45.32210531
aF45.34043327
aF45.34729256
aF45.34389932
aF45.34389932
aF45.35387432
aF45.39969727
aF45.56964867
aF45.63818914
aF45.83314972
aF45.85423671
aF45.85955076
aF45.87658402
aF46.18560493
aF46.34284231
aF46.36931485
aF46.46700587
aF46.49823061
aF46.59362292
aF46.70048563
aF46.70109217
aF46.70980829
aF47.08572006
asVBTC-CVC
p49
(lp50
F240.62431796
aF241.7321804
aF244.69743033
aF246.32362867
aF246.70950356
aF247.44602422
aF247.62926252
aF249.30703705
aF251.76033237
aF252.93483787
aF253.38901845
aF253.56013091
aF252.48028477
aF248.93613591
aF249.15305502
aF257.16114095
aF256.83004188
aF256.73689535
aF257.27750456
aF270.05305159
aF269.87868585
aF270.57448798
aF269.51312713
aF276.53326127
aF281.98003659
aF300.11517983
aF311.56333009
aF313.47177803
asVBTC-ETC
p51
(lp52
F305.14313751
aF305.40942325
aF304.50894369
aF304.10495615
aF304.29876331
aF301.27592824
aF301.30276762
aF300.91107924
aF298.26920417
aF289.97081811
aF289.59596261
aF290.05463609
aF290.40090794
aF293.82259217
aF293.37361139
aF293.94770664
aF293.05529432
aF292.81920686
aF288.81605987
aF285.7106171
aF284.29791262
aF285.63668952
aF288.16595448
aF293.11572954
aF290.31063158
aF291.35860569
aF298.10217576
aF298.75144225
asVBTC-STRAT
p53
(lp54
F436.8219578
aF439.82319594
aF444.50376435
aF440.58118016
aF440.0115555
aF439.61765317
aF440.25516049
aF438.3580913
aF440.70472966
aF439.57235369
aF440.20033187
aF441.80167698
aF439.45745254
aF441.37753175
aF441.57281997
aF444.10717565
aF448.39602219
aF448.57276453
aF448.08965398
aF448.29359953
aF447.52704401
aF448.04863909
aF445.13737635
aF445.58731512
aF443.99714078
aF440.49665121
aF440.05331862
aF446.06609688
asVBTC-IOP
p55
(lp56
F490.97668655
aF491.88832769
aF494.68445376
aF497.16654855
aF500.28777567
aF502.78094057
aF503.01727352
aF504.50678871
aF506.01667553
aF507.1327576
aF511.51649608
aF512.50313765
aF513.35925165
aF514.76804985
aF515.1521992
aF516.91069335
aF517.43910549
aF517.66566668
aF517.99738229
aF518.04741011
aF518.51119285
aF519.34125927
aF521.05819182
aF522.02587462
aF522.70659976
aF523.53631885
aF524.38924567
aF531.5649719
asVBTC-ETH
p57
(lp58
F2321.31990204
aF2313.43442343
aF2313.820844
aF2323.24241584
aF2333.18400166
aF2344.94210872
aF2338.63454551
aF2313.86330202
aF2308.80956377
aF2323.41606041
aF2319.40722268
aF2320.25316614
aF2315.07640243
aF2313.22476913
aF2317.5500019
aF2329.13779557
aF2333.05722927
aF2332.64468107
aF2344.96241854
aF2339.55686599
aF2350.89092123
aF2362.43828635
aF2372.35026762
aF2418.20256206
aF2422.32952561
aF2474.20280183
aF2564.36427656
aF2613.78984485
asVBTC-CPC
p59
(lp60
F11.74351565
aF11.73517371
aF11.74461015
aF12.06330123
aF12.06330123
aF12.02118378
aF12.01865895
aF12.01865895
aF11.94545533
aF9.87484494
aF13.84142164
aF13.77275269
aF14.20444808
aF14.20444808
aF14.17220706
aF14.13934472
aF14.13934472
aF14.07248418
aF14.10317038
aF14.10317038
aF14.10586362
aF14.10586362
aF14.27306452
aF14.63424154
aF14.66924931
aF14.6039263
aF14.62516305
aF14.62516305
asVBTC-CLOAK
p61
(lp62
F242.90605144
aF240.45046731
aF242.41519702
aF241.37924248
aF241.65985158
aF241.45082112
aF240.70789733
aF239.56191395
aF232.08001153
aF232.07912884
aF230.81680346
aF229.84077438
aF223.82706343
aF222.62514289
aF222.68936449
aF222.139711
aF221.221122
aF220.70562505
aF221.0554924
aF220.15876955
aF220.24082108
aF219.91714421
aF218.94611275
aF218.27240793
aF217.34037777
aF219.22691899
aF221.34950061
aF220.62256827
asVBTC-CLAM
p63
(lp64
F28.03065785
aF28.08447705
aF28.07828457
aF28.07828457
aF28.07858014
aF28.12006746
aF28.06987173
aF28.14072461
aF29.2090942
aF29.65646642
aF29.72599985
aF29.76183677
aF29.81052105
aF29.82759161
aF29.82759161
aF29.83876414
aF29.86858126
aF30.21347419
aF30.21513147
aF30.22534119
aF30.35213446
aF30.37001267
aF30.36926066
aF30.42391584
aF30.39949223
aF30.43908309
aF30.49589627
aF31.18445171
asVBTC-SNT
p65
(lp66
F172.1823536
aF171.56833349
aF172.62410077
aF173.45282154
aF173.64345306
aF173.58523779
aF173.76147336
aF173.99613439
aF173.32823382
aF173.56091037
aF173.35955213
aF173.5290821
aF174.31434962
aF173.96194757
aF175.99153939
aF176.20631544
aF175.75083344
aF176.22970679
aF176.74791466
aF176.71708778
aF176.52730244
aF176.45922373
aF178.39857646
aF179.49705551
aF178.44375617
aF179.286019
aF183.36598278
aF185.76072188
asVBTC-TRST
p67
(lp68
F73.58203475
aF73.5350925
aF73.91736352
aF73.96289318
aF74.23344489
aF74.39349429
aF74.0834074
aF75.71734058
aF77.92745988
aF82.07270585
aF82.36896651
aF83.52024827
aF84.65953237
aF85.11057691
aF86.95093479
aF87.7144931
aF88.00302156
aF87.43810532
aF87.41563332
aF87.44629865
aF87.95438609
aF87.9879228
aF88.4553422
aF88.35782423
aF88.52634225
aF88.80862676
aF89.16927001
aF90.58368937
asVETH-SNT
p69
(lp70
F577.14558006
aF577.95630954
aF577.95630954
aF575.45376956
aF575.54804706
aF575.54804706
aF579.33093765
aF579.33093765
aF588.98697476
aF589.8035499
aF589.06795319
aF589.39462567
aF589.15981082
aF589.62417791
aF613.10570145
aF613.14836145
aF613.14836145
aF622.71934494
aF622.71934494
aF622.71934494
aF623.03053143
aF624.00575261
aF622.53039086
aF619.79882332
aF561.98803774
aF564.36356691
aF600.87490218
aF631.78650858
asVETH-XEM
p71
(lp72
F107.00918631
aF107.00918631
aF107.05092311
aF104.10148771
aF104.10148771
aF103.70243182
aF101.31995243
aF101.12197473
aF101.12197473
aF99.70995625
aF99.62457625
aF100.55893616
aF100.55893616
aF100.34512616
aF91.37636334
aF91.37636334
aF91.37636334
aF91.37636334
aF91.55676532
aF91.55676532
aF91.55676532
aF91.55676532
aF91.55676532
aF91.55676532
aF95.79133084
aF95.79133084
aF95.39447229
aF95.39447229
asVBTC-SBD
p73
(lp74
F7.51620414
aF7.70942997
aF7.70942997
aF7.72845345
aF7.79782898
aF7.83001116
aF7.83001116
aF7.78003953
aF7.5801712
aF7.5801712
aF7.33153061
aF7.30321089
aF7.26834582
aF7.32257475
aF7.32967168
aF7.32967168
aF7.28980577
aF7.29040051
aF7.42236999
aF7.42236999
aF7.44102153
aF7.47913188
aF7.47913188
aF7.58212861
aF7.58212861
aF7.56390794
aF7.59191709
aF7.59191709
asVBTC-CANN
p75
(lp76
F20.86396114
aF20.83589474
aF20.43594223
aF20.01610116
aF20.01664926
aF15.93968279
aF15.93968279
aF15.82342503
aF15.82342503
aF15.60490994
aF15.14839335
aF15.22173405
aF15.25271424
aF15.24573103
aF15.30847422
aF15.30847422
aF15.00285564
aF14.9609044
aF14.97957667
aF14.95605574
aF15.00701127
aF15.00351035
aF15.03515558
aF15.41062912
aF15.36106
aF15.33497841
aF14.89519416
aF15.05075687
asVBTC-SWT
p77
(lp78
F7.25423837
aF7.20891181
aF7.20891181
aF7.20891181
aF7.18576217
aF7.18576217
aF7.20620591
aF7.20738786
aF7.24670686
aF7.36794885
aF7.37612325
aF7.37863845
aF7.37863845
aF7.45620269
aF7.41298192
aF7.41298192
aF7.41298192
aF7.41298192
aF7.43383192
aF7.43383192
aF7.43383192
aF7.07047656
aF7.05055471
aF7.34854002
aF7.4348275
aF7.43875604
aF7.41623522
aF7.41892847
asVBTC-BLK
p79
(lp80
F76.9802815
aF76.70781481
aF76.71234825
aF76.93498449
aF76.95502274
aF77.34999591
aF77.33516416
aF77.46890404
aF77.78572797
aF78.5251822
aF78.53175052
aF78.55399611
aF78.70073407
aF79.06781294
aF78.36740705
aF78.36918796
aF78.95026877
aF78.06695911
aF78.07644824
aF77.15844234
aF76.38580142
aF76.39736203
aF76.70255247
aF77.27046363
aF76.31670577
aF76.08261353
aF76.11256788
aF75.89099525
asVBTC-UNO
p81
(lp82
F28.25579259
aF28.25579259
aF28.31160778
aF28.83861593
aF28.83933087
aF28.77988427
aF28.57422523
aF28.43594014
aF28.43594014
aF28.22966078
aF28.2054151
aF28.2054151
aF28.16896817
aF28.06213258
aF28.0550704
aF28.049451
aF28.17672769
aF28.16631531
aF28.26280022
aF28.26362187
aF27.97714486
aF27.97714486
aF27.97315706
aF27.88919484
aF27.98564126
aF27.98564126
aF27.97974308
aF27.97935415
asVETH-OMG
p83
(lp84
F4949.01568102
aF5052.04133558
aF5028.18890574
aF5107.55490117
aF5154.16361179
aF5147.97614439
aF5138.92953071
aF5139.01997279
aF5118.0514826
aF5112.07885911
aF5081.6562822
aF5177.01605908
aF5270.53799946
aF5291.01744887
aF5220.25078688
aF5180.48750728
aF5118.85819326
aF5086.80743944
aF5086.48483557
aF5090.73301599
aF5122.54887926
aF5127.56687582
aF5160.27270152
aF5171.49512423
aF5469.39406493
aF5681.93755506
aF5695.82613507
aF5814.02735541
asVBTC-DASH
p85
(lp86
F400.077746
aF398.46209247
aF398.10126596
aF396.43933745
aF396.60297361
aF397.06811857
aF394.71689801
aF397.33046857
aF396.21485882
aF379.05027683
aF380.09558653
aF391.40451862
aF393.08266031
aF392.79938474
aF398.27878809
aF403.40509306
aF420.44556417
aF430.59867689
aF439.15761122
aF447.7535211
aF469.76955762
aF470.79790692
aF471.46616429
aF473.23658037
aF476.74917239
aF480.69337142
aF479.74358206
aF493.32340209
asVETH-QTUM
p87
(lp88
F2244.88046955
aF2244.0269354
aF2251.05167494
aF2258.88398619
aF2240.86200175
aF2241.8364798
aF2242.65358169
aF2235.04135534
aF2258.19825842
aF2258.19825842
aF2266.83587837
aF2305.75848918
aF2290.81969479
aF2290.81969479
aF1842.56065852
aF1841.36459452
aF1835.96184537
aF1835.07743988
aF1831.87951684
aF1824.94486645
aF1825.99362551
aF1826.95195071
aF1826.65856619
aF1824.75447775
aF1801.91335948
aF1813.78313707
aF1816.66805045
aF1903.61713968
asVBTC-FUN
p89
(lp90
F341.90418445
aF342.27190518
aF342.16400806
aF342.27535973
aF342.55606124
aF342.82207886
aF342.61038475
aF342.82563218
aF342.54830752
aF342.26087398
aF343.40962509
aF344.76580805
aF345.02007598
aF345.93089734
aF347.20277579
aF353.07911817
aF355.91881152
aF360.51955523
aF361.84185151
aF363.10582891
aF364.94507615
aF370.65867474
aF372.49811816
aF381.45358434
aF383.15773623
aF383.28514554
aF383.2452784
aF383.35246866
asVBTC-MAID
p91
(lp92
F103.38964862
aF103.34978427
aF104.68711176
aF103.44637184
aF107.02093646
aF105.96391252
aF106.44337408
aF106.61074623
aF106.64191102
aF105.35205324
aF103.17316016
aF103.14333677
aF103.32125877
aF104.88495091
aF104.88495091
aF104.86339495
aF104.07182402
aF104.13218607
aF104.17190373
aF104.12814929
aF104.26020519
aF106.13653721
aF106.21245205
aF106.20026864
aF105.00041363
aF104.98398439
aF105.0298189
aF105.05152596
asVBTC-ZEN
p93
(lp94
F20.74383448
aF21.25399972
aF21.26329972
aF20.95189435
aF20.92025709
aF20.91524825
aF20.98067086
aF20.98715058
aF20.99649236
aF21.03993908
aF21.01317286
aF21.25235962
aF21.40902465
aF20.51111458
aF20.52611449
aF20.4931766
aF20.4085205
aF20.71933651
aF20.7187383
aF17.88787857
aF17.88787857
aF17.36184103
aF17.50932541
aF17.52354954
aF16.78048828
aF16.73422742
aF16.88100593
aF18.56879771
asVBTC-AEON
p95
(lp96
F11.81163266
aF11.89653761
aF10.86059698
aF10.86059698
aF10.85736198
aF10.88281971
aF10.88281971
aF10.86298825
aF10.83945314
aF10.83945314
aF10.82699169
aF10.72792756
aF10.72048395
aF10.72048395
aF10.45925379
aF10.21133609
aF10.21054378
aF9.7895986
aF9.78444987
aF9.63675054
aF11.32497957
aF11.26124965
aF11.26224535
aF11.29455717
aF11.29455717
aF11.29230928
aF11.07423696
aF11.07423696
asVBTC-NEO
p97
(lp98
F2108.28279396
aF2092.9525532
aF2087.23859667
aF2070.73597188
aF2069.12599132
aF2064.05655045
aF2066.37899909
aF2066.19123207
aF2061.05221339
aF2050.30429768
aF2042.38560388
aF2021.63891859
aF2018.6727503
aF2011.75147983
aF2006.42304295
aF2010.05167
aF2000.62553509
aF1993.07671106
aF1976.65056827
aF1966.88894584
aF1965.7430661
aF1959.14695369
aF1970.32580705
aF1982.87281973
aF1988.08594504
aF1982.34361613
aF1991.28551674
aF1994.38271033
asVETH-MCO
p99
(lp100
F168.90389823
aF167.87746145
aF167.87746145
aF173.86337928
aF173.86337928
aF174.54076718
aF174.67782614
aF175.44949847
aF175.44949847
aF175.29061555
aF170.04105868
aF173.10770425
aF174.27049783
aF174.54539028
aF177.54375345
aF177.67532945
aF177.67532945
aF177.67532945
aF145.73764603
aF140.34223763
aF138.89789044
aF143.04547717
aF143.04547717
aF145.29037143
aF154.10533825
aF159.60865618
aF166.12524631
aF166.02507116
asVBTC-MONA
p101
(lp102
F5.47203399
aF5.54639197
aF5.75873831
aF5.92718097
aF5.93841322
aF5.91816985
aF5.94286139
aF5.94536138
aF5.9167063
aF5.9610897
aF5.96897664
aF5.99147664
aF5.7049385
aF5.77055297
aF5.77907569
aF5.77907569
aF5.83958942
aF5.73377348
aF5.73377348
aF5.68767429
aF5.68767429
aF5.96536677
aF5.97067229
aF5.97059339
aF6.02943834
aF6.05211798
aF6.05273528
aF6.04667399
asVETH-XLM
p103
(lp104
F45.61115735
aF45.61115735
aF45.61115735
aF45.60801793
aF45.04777154
aF45.27317154
aF49.78117152
aF49.73513152
aF49.73513152
aF49.73513152
aF49.73513152
aF49.09571535
aF49.09571535
aF48.01138777
aF48.01138777
aF48.01138777
aF46.04001283
aF46.04001283
aF48.46682615
aF50.90766832
aF48.80035264
aF48.82110615
aF46.64423113
aF46.64423113
aF47.0817159
aF52.11518315
aF52.95330883
aF53.10303199
asVBTC-EDG
p105
(lp106
F2961.04500319
aF2910.52641139
aF2890.8477496
aF2830.48058008
aF2814.18387025
aF2753.904532
aF2654.7837087
aF2621.11634512
aF2588.61855807
aF2543.68707699
aF2533.66449084
aF2527.90952801
aF2494.74360697
aF2477.0977142
aF2443.24701566
aF2427.71406405
aF2423.73959985
aF2425.47345521
aF2433.00297231
aF2436.52674127
aF2431.93210301
aF2422.33384718
aF2418.23040195
aF2469.46063342
aF2473.58213526
aF2475.15239638
aF2448.77623747
aF2424.97299947
asVETH-TIME
p107
(lp108
F4.80178379
aF4.81031664
aF4.81031664
aF5.07382258
aF5.08384262
aF5.08384262
aF5.08384262
aF5.08384262
aF5.08384262
aF5.08384262
aF5.08384262
aF5.08384262
aF5.08384262
aF5.08384262
aF5.08384262
aF5.08384262
aF5.08384262
aF5.08384262
aF5.23421416
aF5.23421416
aF5.23421416
aF5.48162418
aF5.7334527
aF5.7334527
aF5.7334527
aF5.7334527
aF5.7334527
aF5.94563404
asVBTC-EBST
p109
(lp110
F1860.6253693
aF1875.86941126
aF1873.90716961
aF1878.86359311
aF1883.04733914
aF1885.88093329
aF1891.20053878
aF1895.13214119
aF1924.76854081
aF1929.77499035
aF1931.52062457
aF1933.19640892
aF1933.68107176
aF1936.80809229
aF1943.65636302
aF1944.91595856
aF1946.48325012
aF1947.92284012
aF1946.10312754
aF1950.50825671
aF1953.08978067
aF1960.69633436
aF1969.3927557
aF1971.47143309
aF1971.62634188
aF1973.60598609
aF1973.91192745
aF1973.02394022
asVBTC-START
p111
(lp112
F10.35880582
aF11.29961228
aF15.61069781
aF17.04380194
aF17.87754292
aF18.20117102
aF18.50676403
aF18.54918964
aF18.57835094
aF18.58615782
aF18.69804728
aF19.1077983
aF19.18176365
aF19.22167541
aF19.24049282
aF19.24373692
aF19.24373692
aF19.17676066
aF19.42809825
aF19.45507881
aF19.48353112
aF19.5737516
aF19.57449968
aF19.57449968
aF19.59257415
aF19.69173013
aF19.71591461
aF19.73664975
asVBTC-FLO
p113
(lp114
F9.93235244
aF9.94884321
aF9.94884321
aF9.93340638
aF9.88824368
aF9.88824368
aF9.85188797
aF9.8563663
aF9.82497442
aF9.8493832
aF9.85728804
aF9.7124867
aF9.6355356
aF9.66544236
aF9.54397409
aF8.94143746
aF8.94143746
aF8.97757678
aF8.98045851
aF9.24561448
aF9.36977194
aF9.39024892
aF9.39024892
aF9.31484436
aF9.38995737
aF9.36861529
aF9.39416735
aF9.36576445
asVBTC-MYST
p115
(lp116
F38.53614398
aF38.54783249
aF38.68567043
aF39.19747549
aF39.52654182
aF40.46933391
aF40.43406115
aF40.47823523
aF40.52335157
aF40.83004744
aF40.90381815
aF40.99579615
aF41.02180402
aF40.99214189
aF41.07614239
aF41.11002328
aF41.34231898
aF41.28838077
aF41.4698525
aF41.4698525
aF41.25400564
aF40.87619131
aF40.06172415
aF40.05057284
aF40.05057284
aF40.14572404
aF40.40511886
aF40.25834391
asVBTC-MCO
p117
(lp118
F220.91968009
aF221.14357606
aF221.81970088
aF224.70615445
aF224.01523208
aF224.9812225
aF226.29052323
aF230.42485757
aF226.77344831
aF225.66339204
aF220.72190467
aF220.8801233
aF220.19818623
aF220.70553091
aF219.15577006
aF218.29476665
aF218.22787032
aF221.76617051
aF220.62830189
aF219.52610027
aF220.20275235
aF221.19185434
aF224.62953055
aF226.00512501
aF228.15476195
aF228.81944533
aF229.739329
aF230.45478611
asVBTC-WINGS
p119
(lp120
F148.35918962
aF151.41281049
aF152.53367592
aF152.34636455
aF153.62965536
aF153.82492521
aF153.88789999
aF154.04699405
aF156.78082836
aF158.28361454
aF159.856922
aF161.42893424
aF162.11055678
aF162.42651282
aF163.00381434
aF165.45302349
aF167.01710071
aF168.0157346
aF168.43445934
aF169.46893305
aF169.45635288
aF169.69911914
aF171.02406892
aF171.06467198
aF171.15738261
aF171.5010191
aF172.09233333
aF172.14183612
asVBTC-XMY
p121
(lp122
F12.55486135
aF12.55539042
aF12.49657431
aF12.48481363
aF12.49229265
aF12.49229265
aF12.50942424
aF12.51957053
aF12.51957053
aF12.51957053
aF12.51734187
aF12.25123083
aF12.20967944
aF11.13043445
aF11.13043445
aF11.14658119
aF11.19414366
aF11.20535741
aF9.57816607
aF8.84514874
aF8.93852835
aF8.92730776
aF8.92730776
aF7.75448107
aF7.7378497
aF7.88747452
aF7.65698371
aF7.62866598
asVBTC-MTL
p123
(lp124
F293.51031286
aF287.42049164
aF288.453306
aF286.87783373
aF286.81914037
aF286.06293926
aF287.38424678
aF287.89738387
aF287.77140039
aF287.8699479
aF281.66330318
aF279.73470769
aF282.28135058
aF283.54727973
aF286.79033807
aF296.03366945
aF295.3618208
aF294.36754905
aF294.82369716
aF293.03146658
aF292.67006675
aF293.89295554
aF294.87981728
aF294.39937656
aF292.41919844
aF291.38136599
aF293.15285778
aF292.53878053
asVETH-TRST
p125
(lp126
F54.49926957
aF54.49926957
aF54.52171418
aF55.07591632
aF55.11701348
aF56.14828264
aF56.14828264
aF56.25574036
aF48.86992823
aF62.31161217
aF62.38943961
aF61.8461272
aF61.8461272
aF63.61042854
aF65.89140275
aF66.09171465
aF66.51803227
aF66.51803227
aF65.51803228
aF65.51803228
aF65.51803228
aF65.51803228
aF65.51803228
aF65.21026012
aF65.22176317
aF65.13238329
aF65.13238329
aF66.65754128
asVBTC-PDC
p127
(lp128
F69.98202595
aF86.87841663
aF91.26063257
aF98.94699389
aF103.26564867
aF104.22109836
aF105.43446884
aF105.86429629
aF106.30017341
aF107.59388652
aF109.06791506
aF109.32153385
aF109.40866869
aF109.62842492
aF110.54309073
aF111.80792855
aF112.98989748
aF113.39148326
aF113.26698676
aF113.42690181
aF113.67862346
aF113.76813304
aF113.79834876
aF113.82006518
aF113.83871868
aF113.9870407
aF114.1602604
aF114.20600082
asVETH-CVC
p129
(lp130
F212.42536064
aF215.91449529
aF215.91449529
aF212.95680957
aF218.51476766
aF218.51476766
aF219.3184725
aF206.21303864
aF205.7217416
aF205.7217416
aF203.19863967
aF203.19863967
aF201.00172297
aF201.17875017
aF201.17875017
aF201.92126908
aF201.87800252
aF201.87800252
aF192.3401361
aF192.30331813
aF192.30331813
aF192.48988096
aF222.66201134
aF286.1369122
aF286.1369122
aF294.39584621
aF294.57446282
aF291.3413414
asVETH-XMR
p131
(lp132
F204.09064758
aF204.09064758
aF206.16718156
aF210.74403824
aF227.81185578
aF229.17059161
aF228.17357767
aF224.90687492
aF237.24760053
aF236.612502
aF239.21218161
aF236.04599027
aF236.04599027
aF233.32840292
aF235.17839792
aF223.27361516
aF220.35635527
aF217.99824795
aF220.42793147
aF219.03495245
aF219.69572082
aF220.28755013
aF223.82797889
aF225.08808656
aF235.18036851
aF235.63037272
aF237.56455466
aF236.76269477
asVBTC-PPC
p133
(lp134
F17.22550527
aF17.74888845
aF17.69992042
aF17.73474744
aF17.44672407
aF17.41973069
aF17.46586472
aF17.471778
aF17.6890883
aF17.81154153
aF18.21548881
aF18.07637162
aF18.38613324
aF18.46143855
aF18.48671909
aF18.49932141
aF18.37111916
aF18.81607181
aF19.18462098
aF19.24271182
aF19.13551554
aF19.05851083
aF19.53456794
aF19.89242457
aF19.8746986
aF20.453503
aF20.41153528
aF20.41153528
asVETH-LTC
p135
(lp136
F809.08256601
aF809.08416931
aF806.90757915
aF792.03182466
aF792.03182466
aF787.4411934
aF785.99686287
aF785.99686287
aF744.55074125
aF741.10866632
aF749.48495759
aF742.08645942
aF744.05146804
aF652.95732396
aF623.77633516
aF628.64541159
aF621.49201582
aF626.60162103
aF813.47490408
aF838.35593113
aF838.35291013
aF820.81353628
aF825.41096088
aF830.49195754
aF831.66653906
aF835.91709239
aF842.55623739
aF838.56039651
asVUSDT-LTC
p137
(lp138
F2494714.2592859
aF2556771.38461178
aF2561882.53111977
aF2600021.80245158
aF2601155.03327645
aF2587439.42228258
aF2593972.75642712
aF2671880.5440941
aF2643436.55850416
aF2645120.3437813
aF2644440.08438901
aF2644652.2775463
aF2645361.84113484
aF2656792.29906175
aF2630637.61129161
aF2654518.00691969
aF2650665.76746392
aF2613909.3225633
aF2606672.03393723
aF2599220.86931492
aF2597687.47530424
aF2597423.35264449
aF2628541.57698183
aF2656798.27114606
aF2679065.8440753
aF2642734.75742088
aF2653616.95800038
aF2666501.30171792
asVBTC-ADT
p139
(lp140
F3.79062822
aF3.79062822
aF3.78901537
aF3.78781396
aF3.78781396
aF3.7835455
aF3.80624003
aF3.85160957
aF3.87386765
aF3.89085488
aF3.94676754
aF3.95162254
aF4.04820882
aF4.04958184
aF4.0660838
aF4.0689968
aF4.28829213
aF4.29859416
aF4.6880774
aF6.21608985
aF6.21798667
aF6.28235401
aF6.28235401
aF6.28674821
aF6.28674821
aF6.27570833
aF6.25160099
aF6.13611896
asVBTC-LUN
p141
(lp142
F414.73365301
aF410.76725887
aF412.51298315
aF414.68024918
aF423.30960138
aF426.46927567
aF427.8921493
aF429.16427806
aF429.65547321
aF430.38721163
aF432.40390064
aF436.23710794
aF437.96762775
aF438.43964159
aF439.33326797
aF438.88011248
aF434.98163071
aF443.46917024
aF450.20166053
aF455.1497641
aF457.64742437
aF463.62966414
aF467.37330691
aF469.37648974
aF468.38652956
aF469.23158539
aF470.38210947
aF469.22196795
asVBTC-DGB
p143
(lp144
F251.07262223
aF249.78357126
aF248.81340095
aF248.2466844
aF248.73817815
aF248.99402784
aF248.34827673
aF240.64703861
aF239.95820828
aF241.37772589
aF241.26988932
aF242.42571721
aF242.62489954
aF243.54827681
aF245.6646289
aF241.90017449
aF243.16961643
aF243.73099853
aF243.97267415
aF243.65653732
aF243.66717108
aF245.84422188
aF245.96364046
aF248.42851379
aF247.33501073
aF246.32861255
aF247.2275656
aF249.86069327
asVETH-ETC
p145
(lp146
F366.71506623
aF367.05421623
aF367.13330243
aF357.73145796
aF357.73145796
aF357.67960181
aF357.93267539
aF360.12392049
aF360.12392049
aF344.18471353
aF343.80925032
aF343.80925032
aF343.80925032
aF343.80925032
aF343.80925032
aF343.80925032
aF342.95579798
aF343.08123489
aF343.64036048
aF346.41465361
aF374.66332311
aF387.63642184
aF466.6808044
aF467.721283
aF471.89025099
aF476.19622428
aF490.16316772
aF494.67023201
asVBTC-RISE
p147
(lp148
F2514.158549
aF2521.34504276
aF2523.60213646
aF2531.96264499
aF2533.54023639
aF2534.19754207
aF2536.29507171
aF2556.40160005
aF2559.66933014
aF2564.04253916
aF2576.82116419
aF2584.27925939
aF2589.65414024
aF2584.90135854
aF2582.61006593
aF2577.1377538
aF2574.7134748
aF2567.90210651
aF2568.31800432
aF2570.5396258
aF2572.44707536
aF2570.96882038
aF2568.38600503
aF2564.51966498
aF2560.7305088
aF2529.93312889
aF2513.91070843
aF2505.85917158
asVETH-PTOY
p149
(lp150
F120.16655428
aF117.95300235
aF117.65621653
aF117.65621653
aF117.63621654
aF110.87453866
aF111.69465235
aF111.92422943
aF111.24927331
aF122.89856218
aF127.05123432
aF130.44472772
aF130.89042022
aF138.0991276
aF138.0991276
aF141.14152173
aF141.16978765
aF141.9743254
aF141.9743254
aF141.96650274
aF140.9831949
aF141.35470778
aF141.35470778
aF141.75781939
aF141.0595694
aF141.20120989
aF152.45406645
aF152.45406645
asVBTC-ADX
p151
(lp152
F158.29626492
aF158.59599249
aF156.86055428
aF156.7861724
aF157.13562898
aF157.20613255
aF159.84603064
aF160.66365042
aF158.19599409
aF158.20052265
aF163.37643654
aF165.16052401
aF164.35749728
aF165.72191812
aF167.21637156
aF166.18872733
aF165.93662323
aF165.95369832
aF166.03793602
aF166.42368532
aF167.8468894
aF168.79879105
aF169.00512015
aF170.26812641
aF170.9934069
aF171.39984529
aF171.85724481
aF173.08623563
asVBTC-VIA
p153
(lp154
F116.2945716
aF116.64362348
aF118.51850813
aF123.50434841
aF124.21926548
aF124.31330941
aF125.01489031
aF125.01799846
aF125.03170695
aF124.37997381
aF126.03528035
aF126.42550877
aF125.99218303
aF125.92811016
aF126.005023
aF126.26118876
aF126.24036595
aF126.24666581
aF127.36132999
aF127.99784889
aF129.00358965
aF129.72820921
aF130.07783219
aF130.45099748
aF131.6660537
aF136.11470604
aF136.67841611
aF138.31833646
asVBTC-PINK
p155
(lp156
F17.71115699
aF18.60586416
aF18.62918354
aF18.63607318
aF18.7291029
aF18.81088302
aF18.83262932
aF18.83826922
aF18.85626536
aF18.83626537
aF18.7399163
aF18.7399163
aF18.83321928
aF18.83321928
aF18.81874143
aF18.80611841
aF18.68924384
aF18.56515409
aF19.58753467
aF19.58777427
aF19.61925013
aF19.64319013
aF20.10324925
aF20.10007491
aF20.21431088
aF20.7908122
aF20.77326645
aF20.81061749
asVBTC-PIVX
p157
(lp158
F162.76193383
aF161.29411509
aF164.79663757
aF165.71341779
aF165.39131111
aF166.13246538
aF167.94462774
aF167.7907936
aF167.32332756
aF167.65457378
aF168.0717801
aF166.36810871
aF165.49413798
aF164.44245757
aF164.6127547
aF165.23253889
aF164.39088769
aF164.19072404
aF164.69843106
aF164.66039312
aF165.19273165
aF164.74818993
aF165.0781667
aF165.57599186
aF161.54801001
aF161.61244692
aF162.14603786
aF161.92243822
asVETH-GNT
p159
(lp160
F334.59863695
aF334.10054636
aF334.10054636
aF331.50526942
aF331.69453917
aF333.9710299
aF333.9710299
aF310.39510709
aF294.66675321
aF295.05566042
aF295.05566042
aF295.05566042
aF295.20666468
aF295.30361656
aF294.55557713
aF294.55557713
aF294.55557713
aF285.98035895
aF284.12950638
aF284.12950638
aF276.69424947
aF276.69424947
aF238.66154169
aF258.46392005
aF269.70446172
aF268.29897349
aF277.77816373
aF276.95017386
asVBTC-DTB
p161
(lp162
F21.59124896
aF21.57189677
aF21.57189677
aF21.50099072
aF21.50099072
aF21.82068123
aF20.81122502
aF20.84417146
aF20.93164412
aF21.36272028
aF21.36272028
aF21.36596668
aF21.36596668
aF21.19990276
aF20.72633641
aF20.72633641
aF20.05584888
aF20.08921409
aF20.08921409
aF20.05992899
aF18.27422934
aF18.30240646
aF18.39103558
aF18.39016988
aF18.39016988
aF18.32879128
aF17.62389219
aF17.62389219
asVBTC-NXS
p163
(lp164
F95.74906688
aF95.86794169
aF94.62256863
aF94.84564412
aF93.42462012
aF92.58532789
aF96.26693511
aF97.07761343
aF96.54822156
aF96.14858955
aF96.96206136
aF96.92900669
aF97.46480796
aF97.08014469
aF97.30259183
aF96.92859983
aF97.09722365
aF97.62219071
aF97.63561184
aF97.65630506
aF96.16276123
aF93.56826974
aF93.58261129
aF94.03548207
aF91.44386042
aF90.30249418
aF92.23604258
aF92.94156585
asVBTC-AGRS
p165
(lp166
F4.48004704
aF4.41749036
aF4.27597102
aF4.2755546
aF4.01906579
aF3.87012856
aF3.87012856
aF3.86557702
aF3.85726692
aF3.96083124
aF3.96083124
aF3.95911348
aF3.96624708
aF3.93814219
aF3.93620311
aF3.93620311
aF3.92967057
aF3.95330053
aF4.00443543
aF4.01441042
aF4.01441042
aF4.01441042
aF3.9774676
aF3.9774676
aF3.97905549
aF3.97905549
aF4.01051002
aF4.01051002
asVBTC-GEO
p167
(lp168
F4.3730204
aF4.37541489
aF4.37541489
aF4.3646174
aF4.41522298
aF4.44455949
aF4.46011484
aF4.30639133
aF3.9097876
aF3.65162107
aF3.65162107
aF3.5657374
aF3.59747941
aF3.60439387
aF3.6033823
aF3.45894793
aF3.45894793
aF3.44310807
aF3.70314456
aF3.725717
aF3.725717
aF3.725717
aF3.72270539
aF3.72612872
aF3.73003613
aF3.7249658
aF3.7237224
aF3.72630379
asVBTC-SHIFT
p169
(lp170
F11.5011577
aF11.50956344
aF11.50956344
aF11.59254805
aF11.60079805
aF11.58682189
aF11.63157657
aF11.63827616
aF11.56292291
aF11.67154904
aF11.67154904
aF11.70300046
aF11.40848502
aF11.40848502
aF11.32796275
aF11.37909618
aF11.01769909
aF11.01690415
aF11.05010915
aF11.05010915
aF11.05010915
aF11.04510916
aF11.07831416
aF11.07831416
aF11.508946
aF11.50734676
aF11.53813492
aF11.53813492
asVBTC-SC
p171
(lp172
F318.73033628
aF324.66049684
aF325.03092457
aF325.1756097
aF328.08907291
aF337.8396161
aF334.32279421
aF334.28754669
aF334.51284632
aF334.93098482
aF331.48791186
aF326.78892481
aF323.54200029
aF324.70982886
aF324.66870054
aF323.27742677
aF320.55103398
aF318.75799894
aF318.59238121
aF319.74419455
aF317.73810519
aF317.651345
aF317.38283912
aF316.86245936
aF313.19947851
aF313.13944878
aF314.39395572
aF314.68085038
asVBTC-TIME
p173
(lp174
F10.24962392
aF10.25435392
aF10.25435392
aF10.32910302
aF10.34410301
aF10.20639311
aF10.21746732
aF10.19478231
aF10.19953231
aF10.19953231
aF10.19953231
aF10.18559188
aF9.96532498
aF9.96532498
aF9.96532498
aF9.96532498
aF9.96532498
aF9.96532498
aF9.97292308
aF9.97292308
aF9.97637202
aF19.79699638
aF20.27511492
aF20.31390919
aF20.37850269
aF20.63086823
aF20.72662678
aF20.78082773
asVBTC-CLUB
p175
(lp176
F14.05370904
aF14.05370904
aF14.05270905
aF13.52643798
aF13.52643798
aF13.27459995
aF13.27459995
aF13.27459995
aF13.27459995
aF13.27459995
aF13.27459995
aF13.27459995
aF13.24368595
aF12.63891536
aF12.63891536
aF12.32153283
aF12.31862587
aF12.32023632
aF12.32023632
aF12.32023632
aF11.93330357
aF11.94925643
aF11.95086688
aF11.95676594
aF12.89689757
aF12.89689757
aF12.91608341
aF12.91608341
asVETH-CFI
p177
(lp178
F364.45373317
aF364.18232914
aF364.55656114
aF367.44060509
aF369.99676655
aF370.43226512
aF368.83639344
aF368.84998747
aF368.84998747
aF369.72753409
aF369.72753409
aF369.72753409
aF366.6250137
aF366.6250137
aF366.6250137
aF366.69837987
aF366.69837987
aF366.69837987
aF359.17129244
aF358.53734244
aF358.6081049
aF358.6081049
aF358.53645918
aF362.27175258
aF362.27175258
aF362.32128071
aF362.33567771
aF362.33567771
asVBTC-AUR
p179
(lp180
F94.67534214
aF94.68530924
aF94.68658709
aF95.10037102
aF95.09334558
aF95.10346726
aF95.10611823
aF95.15929817
aF95.16654839
aF95.18015168
aF95.18710638
aF95.20709707
aF95.20709707
aF95.21092283
aF95.2116805
aF95.21624075
aF95.3241477
aF95.32588429
aF95.33280813
aF95.53955839
aF95.5497965
aF95.53482332
aF95.59096111
aF96.47086277
aF96.5430526
aF96.61197331
aF96.59163169
aF96.59163169
asVBTC-EXP
p181
(lp182
F79.06401305
aF78.62952408
aF78.23367378
aF78.02411977
aF78.03403893
aF78.20610112
aF75.77721293
aF75.42402436
aF75.81727122
aF75.78817309
aF76.9550399
aF73.46513026
aF73.4042753
aF70.6756068
aF70.63781665
aF70.63137355
aF71.3196386
aF71.37385722
aF70.93464769
aF71.29311378
aF72.25101648
aF76.07902141
aF77.20677861
aF77.27181421
aF77.42601182
aF78.02403542
aF78.13609992
aF78.63126375
asVBTC-NXT
p183
(lp184
F161.43923044
aF162.75956348
aF163.07168063
aF162.63682274
aF163.06881777
aF161.20232187
aF163.60247376
aF163.52825887
aF163.97434179
aF161.62388596
aF161.58710235
aF161.88375974
aF160.85272841
aF160.90622604
aF160.91940352
aF160.9548785
aF157.10170267
aF154.1016037
aF154.11848969
aF153.22148106
aF152.04107385
aF151.02752803
aF151.14373448
aF151.31888103
aF151.45736497
aF148.63083457
aF148.61310729
aF148.24387337
asVBTC-XLM
p185
(lp186
F59.00571743
aF59.00413806
aF58.43047973
aF58.39223044
aF58.40894465
aF58.24417476
aF58.52968977
aF58.49362103
aF58.107277
aF56.45847881
aF53.40868553
aF53.66428469
aF53.7266304
aF53.80549036
aF53.67843937
aF53.38938677
aF53.13234697
aF52.90355421
aF52.15657856
aF52.59021392
aF52.16930731
aF51.3742163
aF51.55218332
aF51.45300513
aF51.70123335
aF51.23100691
aF51.38066141
aF51.4145312
asVETH-GNO
p187
(lp188
F11.95677255
aF11.95677255
aF11.95677255
aF11.95677255
aF11.95677255
aF11.95677255
aF11.95677255
aF11.95677255
aF11.95677255
aF11.95677255
aF11.95677255
aF11.95677255
aF11.95677255
aF11.95677255
aF11.95677255
aF11.95677255
aF11.95677255
aF11.95677255
aF11.95677255
aF11.95677255
aF11.95677255
aF11.95677255
aF11.95677255
aF11.95677255
aF11.95677255
aF12.33649349
aF12.33649349
aF12.33649349
asVBTC-DOPE
p189
(lp190
F34.27476551
aF34.45500364
aF34.32609343
aF34.17293109
aF33.63276727
aF33.37547436
aF32.41382787
aF31.71672344
aF30.7391015
aF30.756907
aF30.24738789
aF28.909951
aF28.36975201
aF28.37242787
aF28.188925
aF27.94132253
aF27.97811169
aF28.05625514
aF28.06552281
aF28.0185795
aF27.76286944
aF27.64707646
aF26.71551014
aF26.60145682
aF26.82730873
aF26.70060712
aF26.67059728
aF26.61794186
asVETH-HMQ
p191
(lp192
F5.52135
aF5.52135
aF5.52135
aF5.52135
aF5.52135
aF5.52135
aF5.52135
aF5.43816801
aF5.43816801
aF5.18687693
aF5.18687693
aF5.18687693
aF5.48120938
aF5.92002823
aF6.33170981
aF6.33170981
aF6.33170981
aF6.33170981
aF6.33170981
aF6.33170981
aF6.33170981
aF6.33233192
aF6.33233192
aF6.33233192
aF7.00333192
aF7.00333192
aF7.00333192
aF7.00333192
asVBTC-POT
p193
(lp194
F46.79865033
aF46.88711124
aF46.87014003
aF46.9978013
aF46.99944334
aF47.08983897
aF46.91258923
aF46.87191144
aF46.84787352
aF46.84231713
aF46.84104498
aF46.86742868
aF46.8930391
aF46.9023185
aF46.5528911
aF46.5528911
aF46.53025999
aF46.513629
aF46.4926865
aF46.44240503
aF45.98301215
aF45.99939834
aF45.92572536
aF45.92572536
aF45.75433037
aF44.82572804
aF44.40048714
aF44.40101547
asVBTC-BNT
p195
(lp196
F34.28155248
aF34.297899
aF34.44997608
aF34.43542533
aF34.43926895
aF34.43926895
aF34.29224402
aF34.25658057
aF33.91429696
aF37.91166787
aF37.28976918
aF37.28724204
aF37.10497073
aF34.19539797
aF34.96327978
aF35.17460593
aF34.89790763
aF34.80587106
aF35.10695347
aF34.51632336
aF34.64950353
aF34.96948574
aF34.71987876
aF34.71987876
aF35.4279637
aF35.4279637
aF35.64249571
aF35.79937599
asVETH-ADX
p197
(lp198
F270.0830494
aF269.77881713
aF269.29199565
aF269.29199565
aF267.30189311
aF267.53509532
aF277.55213078
aF277.43826413
aF277.47573285
aF274.87397562
aF278.39560514
aF278.39560514
aF278.2458278
aF277.10579283
aF285.28901931
aF286.50772454
aF286.50772454
aF286.08872475
aF286.41807822
aF286.41807822
aF285.39704729
aF287.26168509
aF287.26608533
aF285.55500835
aF289.24362517
aF289.24362517
aF289.15982389
aF287.03617231
asVBTC-ARK
p199
(lp200
F1216.94137662
aF1219.83926642
aF1214.64501716
aF1214.45947353
aF1212.86020844
aF1203.26176373
aF1200.34847209
aF1195.53220531
aF1203.30217025
aF1193.44624614
aF1162.63887508
aF1163.68828518
aF1152.00527364
aF1195.92936842
aF1191.45403162
aF1194.46729583
aF1195.94810928
aF1198.59764605
aF1201.86516941
aF1203.70159994
aF1216.06273084
aF1222.49240479
aF1259.03111308
aF1270.36107467
aF1278.09976446
aF1283.28537981
aF1296.72008504
aF1303.49416911
asVBTC-DRACO
p201
(lp202
F11.43346807
aF11.43845134
aF11.43845134
aF11.47347624
aF11.4161384
aF11.89690896
aF11.9583733
aF12.01198326
aF12.0406475
aF12.04133975
aF12.13910001
aF12.01055467
aF12.01055467
aF12.01055467
aF12.01055467
aF12.01055467
aF12.00783467
aF11.7468774
aF11.7468774
aF11.75698084
aF12.1186124
aF12.1186124
aF12.1186124
aF12.122666
aF12.122666
aF12.12568839
aF12.13814873
aF12.65309106
asVBTC-ZEC
p203
(lp204
F282.54974282
aF284.04637649
aF287.23511399
aF287.13261635
aF289.55674902
aF291.27291213
aF291.51366631
aF293.37495534
aF294.81662951
aF296.33450346
aF295.29000837
aF295.71339787
aF294.46834802
aF293.52020267
aF293.46937865
aF293.63029334
aF294.41274079
aF294.55333228
aF296.85532272
aF296.49111909
aF296.76459924
aF297.66994899
aF297.49605153
aF296.65755164
aF297.78929342
aF301.94598139
aF315.20824689
aF316.93143758
asVBTC-MUE
p205
(lp206
F41.53518769
aF43.13689827
aF43.17088963
aF42.10769676
aF41.85029269
aF42.2768749
aF43.03779506
aF46.11552396
aF48.50607297
aF48.5477088
aF48.54410223
aF48.58236919
aF48.78607153
aF49.10315933
aF49.10873328
aF49.1164579
aF49.18803987
aF55.18346168
aF55.70195645
aF56.14682172
aF57.36161554
aF57.40446467
aF57.54235137
aF57.4100858
aF57.47885932
aF57.4759781
aF57.61635434
aF57.60120276
asVBTC-AMP
p207
(lp208
F140.83376562
aF138.57393993
aF135.86455099
aF135.14962859
aF134.60658015
aF134.67374911
aF134.28903115
aF135.10649791
aF137.53550893
aF139.21330972
aF134.2403244
aF134.12861593
aF132.83124078
aF133.21755579
aF133.19371295
aF132.81550226
aF132.4310015
aF132.5496814
aF132.48550666
aF128.93203937
aF129.31914769
aF130.09032612
aF130.03873842
aF129.74134913
aF130.16313712
aF130.00803637
aF129.90913308
aF130.11876859
asVBTC-SAFEX
p209
(lp210
F193.68359133
aF195.08982105
aF195.220094
aF195.27669758
aF195.53483709
aF195.69795557
aF195.62511837
aF196.09027024
aF196.37590117
aF196.33915958
aF196.33101943
aF196.33101943
aF195.32397871
aF197.52761885
aF197.92679997
aF198.34861639
aF199.13202471
aF200.45992589
aF201.1466095
aF201.6361438
aF202.58576673
aF203.64762718
aF203.37732283
aF205.07053675
aF203.57335392
aF203.6799332
aF203.60046386
aF203.72899463
asVBTC-OMNI
p211
(lp212
F14.49911105
aF14.45066997
aF14.42257873
aF14.39493907
aF14.39443417
aF14.220119
aF14.21192388
aF14.36964401
aF14.50147926
aF14.50147926
aF13.54166903
aF13.51088846
aF13.51088846
aF13.15757546
aF13.04538684
aF13.05543257
aF12.59432836
aF12.59432836
aF12.66914102
aF12.47841962
aF12.24363636
aF12.24363636
aF12.18047489
aF12.22590415
aF12.22590415
aF12.07566478
aF11.57970713
aF11.6813872
asVBTC-PTC
p213
(lp214
F11.21483754
aF11.24371034
aF11.25659
aF11.28364061
aF11.2854048
aF11.2854048
aF11.31510212
aF11.31881001
aF11.31881001
aF11.32843288
aF11.32843288
aF11.17033755
aF11.16828332
aF11.16990372
aF11.16990372
aF11.16509323
aF11.16509323
aF10.96834509
aF10.96834509
aF10.87456323
aF10.87456323
aF10.88537477
aF10.88731973
aF10.88731973
aF10.84609381
aF10.90290202
aF10.95705963
aF10.94062074
asVBTC-LGD
p215
(lp216
F68.51824055
aF68.51824055
aF68.26755081
aF68.38943187
aF68.79777971
aF66.91978503
aF66.91978503
aF65.46856491
aF65.01267619
aF64.54945158
aF64.06489315
aF63.92203016
aF62.38319919
aF61.4539987
aF61.29788187
aF61.2229625
aF61.2161428
aF60.97945609
aF60.84686853
aF60.9803582
aF60.93962944
aF60.96632109
aF60.31069593
aF59.76927473
aF60.53398475
aF61.31276344
aF61.82609453
aF62.80584151
asVBTC-ARDR
p217
(lp218
F63.11183966
aF63.09786312
aF63.50501275
aF64.14828239
aF64.14828239
aF64.11028579
aF64.01241837
aF63.94185581
aF64.19788636
aF65.15133111
aF65.41776538
aF65.4786332
aF65.16639846
aF62.49776479
aF62.46894878
aF62.40916875
aF62.23759069
aF62.28060035
aF62.38386737
aF65.18768965
aF65.6556568
aF65.78292102
aF65.53299253
aF65.52190124
aF65.43940612
aF65.6917672
aF65.25236287
aF66.25975072
asVBTC-SNGLS
p219
(lp220
F44.40384698
aF44.40584054
aF43.65596829
aF43.77708992
aF43.43466516
aF43.50559064
aF43.50559064
aF42.09245513
aF42.00952584
aF41.9243
aF41.76677803
aF41.62106695
aF41.8093573
aF41.58793891
aF42.92751081
aF43.08988097
aF43.01080712
aF42.53905016
aF42.53905016
aF42.59159119
aF43.61078117
aF43.74375148
aF43.84886356
aF43.93040086
aF43.43163081
aF43.50484851
aF43.29438271
aF43.14260424
asVBTC-SLR
p221
(lp222
F2.04646887
aF2.06368353
aF2.06368353
aF2.06484027
aF2.06363965
aF2.06363965
aF2.06363965
aF2.06664038
aF2.06664038
aF2.08748005
aF2.08748005
aF2.08748005
aF2.08748005
aF2.08748005
aF2.08748005
aF2.08950684
aF2.08950684
aF2.09120665
aF2.09120665
aF1.87341663
aF1.88972306
aF1.89570834
aF1.90468583
aF1.90468583
aF1.90860696
aF1.90860696
aF1.9113002
aF1.9574239
asVBTC-SLS
p223
(lp224
F2.01119925
aF1.99877254
aF1.99382597
aF1.99382597
aF2.12130237
aF2.12958537
aF2.12958537
aF2.12993562
aF2.12993562
aF2.12938562
aF2.19297683
aF2.19381682
aF3.76995952
aF4.11005707
aF4.10197809
aF4.10297558
aF4.10297558
aF4.10300331
aF4.10300331
aF4.10300331
aF4.10300331
aF4.10300331
aF4.10300331
aF4.10300331
aF4.10300331
aF4.10300331
aF4.10300331
aF4.12218915
asVETH-1ST
p225
(lp226
F256.41691158
aF257.02347176
aF258.82803697
aF259.00509012
aF259.3043404
aF259.29425829
aF261.53112507
aF261.53112507
aF263.38416141
aF265.90526684
aF266.95401072
aF266.98342597
aF270.59956129
aF270.89538829
aF268.96659525
aF268.96659525
aF272.74303434
aF272.99781033
aF273.49656033
aF292.39900986
aF296.27030814
aF296.27030814
aF303.25714243
aF301.85729252
aF302.20379261
aF302.2871656
aF308.39043995
aF308.48966513
asVETH-PAY
p227
(lp228
F776.53035283
aF776.62740924
aF775.15152143
aF775.15152143
aF769.5194707
aF768.27214801
aF770.97093039
aF771.78986081
aF771.78986081
aF770.29456774
aF770.29456774
aF751.04640756
aF710.3809574
aF711.62503323
aF700.72743217
aF705.94538286
aF705.25180215
aF707.32254362
aF720.76777212
aF747.6270128
aF753.37923831
aF753.37923831
aF733.5813114
aF728.61098299
aF692.354409
aF685.24745081
aF705.49278016
aF706.28964586
asVETH-BAT
p229
(lp230
F3268.3686323
aF3255.07806009
aF3233.52933722
aF3128.79958929
aF3078.92079948
aF3041.52486406
aF3041.52486406
aF3017.56681284
aF3073.50728032
aF3311.39011213
aF3283.00618049
aF3288.44024313
aF3268.90211816
aF3268.61146362
aF3277.29234774
aF3201.12442687
aF3209.86560581
aF3206.35794155
aF3206.40330695
aF3222.96042368
aF3222.96042368
aF3240.76913446
aF3170.99182703
aF3154.0459451
aF3352.1496312
aF3372.72497134
aF3546.96352248
aF3542.13355757
asVBTC-GNT
p231
(lp232
F92.8859639
aF92.81295718
aF92.35049133
aF92.86913795
aF90.82168533
aF91.7478494
aF92.0882125
aF92.1307841
aF89.62211938
aF89.32161018
aF89.37166594
aF89.39238135
aF89.14785747
aF90.57146179
aF90.81783015
aF89.01769392
aF89.51714479
aF89.41341366
aF89.32680526
aF89.29470048
aF90.44462669
aF91.03402378
aF88.78296329
aF86.84036939
aF86.08428991
aF85.96215118
aF89.67414572
aF89.9509836
asVBTC-GUP
p233
(lp234
F14.67763259
aF13.97409515
aF14.08800634
aF14.08800634
aF13.96174336
aF13.90651187
aF13.90651187
aF13.79438883
aF14.02838744
aF14.06832136
aF13.82283742
aF13.73979372
aF15.09429794
aF15.09429794
aF14.64604907
aF15.95403136
aF15.95712555
aF15.96657652
aF15.92006023
aF15.93652705
aF15.89033023
aF16.00525701
aF16.11217298
aF16.13015867
aF16.29072639
aF16.38845161
aF16.49377984
aF16.49377984
asVETH-SC
p235
(lp236
F742.51541447
aF742.40319447
aF742.40319447
aF743.81773971
aF743.68312558
aF743.68312558
aF743.64475393
aF739.0653544
aF738.76457708
aF737.6742838
aF737.6742838
aF737.49110939
aF742.45588988
aF761.74628956
aF761.74628956
aF761.50214074
aF761.32209366
aF737.98303195
aF738.06207998
aF738.12470185
aF738.98161865
aF738.98161865
aF722.91240563
aF722.91240563
aF722.89330563
aF722.39116539
aF708.80654232
aF708.93970855
asVBTC-UNB
p237
(lp238
F6.34324438
aF6.46462613
aF6.09369644
aF6.09478961
aF5.13258377
aF5.47403928
aF5.52309413
aF5.78932299
aF5.78946785
aF5.78946785
aF5.78939302
aF5.77646898
aF5.77663953
aF5.72731886
aF5.95534174
aF6.00420529
aF6.22674194
aF6.23160899
aF6.23160899
aF6.22534466
aF6.22272383
aF6.27226202
aF6.27226202
aF6.27226202
aF6.26730816
aF6.26730816
aF6.25920586
aF6.29165688
asVBTC-COVAL
p239
(lp240
F11.90997493
aF12.0385884
aF12.02908334
aF12.04077874
aF12.04078181
aF12.14481624
aF12.1448076
aF12.14179233
aF12.14178584
aF12.13197198
aF12.15936552
aF12.09670897
aF12.09672317
aF12.0967538
aF12.10949931
aF12.11023981
aF12.1102579
aF12.11811144
aF12.01585193
aF12.14293177
aF12.17191495
aF12.17716706
aF12.20518888
aF12.20508904
aF12.1880766
aF12.05145199
aF12.05129326
aF11.68293721
asVBTC-ENRG
p241
(lp242
F2.78161928
aF2.78161928
aF2.78161928
aF2.78195953
aF2.78635724
aF2.78635724
aF2.77703438
aF2.77703438
aF2.77703438
aF2.77746815
aF2.79743931
aF2.79743931
aF2.83272885
aF2.83272885
aF2.83272885
aF2.7380738
aF2.7380738
aF2.79250584
aF2.79250584
aF2.80681163
aF2.94215856
aF3.02383583
aF3.07996935
aF3.12283886
aF3.17842044
aF3.17842044
aF3.18131646
aF3.15687414
asVETH-FUN
p243
(lp244
F388.91054138
aF389.41065803
aF389.53590133
aF393.37562035
aF393.37562035
aF393.37562035
aF393.37562035
aF393.37562035
aF393.02285072
aF393.02285072
aF393.02285072
aF392.90670079
aF395.92545968
aF397.89434901
aF398.43172386
aF402.04405442
aF412.98773596
aF459.23391737
aF472.28809354
aF473.27480386
aF479.20977884
aF501.72495234
aF506.26725404
aF544.33965222
aF547.67368084
aF548.63324787
aF549.04322766
aF549.04322766
asVETH-BCC
p245
(lp246
F1114.52966536
aF1113.10610468
aF1113.10610468
aF1114.53265043
aF1114.70515043
aF1150.07360605
aF1150.07532769
aF1152.16892795
aF1153.03442655
aF1150.39377
aF1146.45671446
aF883.31980577
aF856.12103432
aF856.96481289
aF856.78465243
aF852.59701969
aF851.66695431
aF844.12575123
aF842.41661644
aF836.63028503
aF840.73687662
aF847.85817376
aF863.00168568
aF863.00705932
aF917.21442408
aF961.61730573
aF963.88757743
aF936.78640343
asVBTC-XVC
p247
(lp248
F84.32787963
aF84.59830766
aF84.89562039
aF85.15469327
aF85.15469327
aF85.21766184
aF85.93673551
aF85.93464609
aF85.93520912
aF86.27381363
aF86.34687006
aF86.5377089
aF86.09849001
aF86.02922203
aF86.28726529
aF86.30284313
aF86.30284313
aF85.3341894
aF84.83712379
aF84.89690303
aF85.04966556
aF84.83276015
aF84.84586073
aF85.00421733
aF85.07748522
aF84.99300411
aF84.82090959
aF85.68329072
asVBTC-RADS
p249
(lp250
F53.85750059
aF53.85750059
aF53.97643528
aF53.97643528
aF53.91320591
aF53.96243661
aF53.96243661
aF53.87345811
aF53.83624987
aF52.60765957
aF53.20041337
aF53.20320598
aF53.20715396
aF53.20715396
aF53.20715396
aF53.22212395
aF52.80642208
aF52.87408956
aF52.89922936
aF52.46657215
aF52.46657215
aF52.58653303
aF52.58653303
aF52.84640707
aF52.84640707
aF52.95837273
aF53.16943142
aF53.27902493
asVBTC-XVG
p251
(lp252
F579.67643054
aF573.66541905
aF584.20429574
aF586.69794857
aF587.87612369
aF589.06150076
aF588.11000096
aF589.93935298
aF591.39575985
aF587.25133229
aF586.58755256
aF581.44030382
aF576.28914075
aF573.61505827
aF572.0082382
aF573.19912109
aF573.30575488
aF573.01563382
aF574.62197682
aF580.53319329
aF582.98453056
aF585.96388921
aF587.16759925
aF586.67508252
aF569.78714219
aF537.19114802
aF531.41967872
aF531.98295664
asVETH-LGD
p253
(lp254
F17.02025555
aF17.02025555
aF17.02025555
aF17.02025555
aF15.50450169
aF15.50450169
aF15.17859219
aF15.17859219
aF15.17859219
aF14.94287338
aF14.80998973
aF13.78607476
aF13.78607476
aF13.78607476
aF13.78607476
aF13.78607476
aF13.78607476
aF13.36078578
aF13.42623495
aF13.43639028
aF13.43639034
aF13.43639034
aF13.43639034
aF13.43639034
aF13.43639034
aF13.43639034
aF13.43639034
aF14.92583595
asVBTC-EFL
p255
(lp256
F5.85429602
aF5.85985465
aF5.87566203
aF5.87459249
aF5.87459249
aF5.86193603
aF5.86193603
aF5.86193603
aF5.89090702
aF5.89345741
aF5.89345741
aF5.89345741
aF5.89296495
aF5.89296495
aF5.90051914
aF5.90153117
aF5.90205406
aF5.90205406
aF5.90205406
aF5.8812876
aF6.00110594
aF5.9979797
aF5.9979797
aF6.00770583
aF6.02637981
aF6.13205634
aF6.29652778
aF6.29652778
asVETH-SNGLS
p257
(lp258
F183.79834571
aF183.79834571
aF160.30661142
aF162.64789963
aF163.44937796
aF163.54909092
aF163.44958199
aF163.44958199
aF162.67017259
aF162.47007949
aF163.89569984
aF162.64153015
aF162.66975861
aF162.66975861
aF162.34477128
aF157.61491267
aF158.41892368
aF160.28975327
aF160.31795967
aF159.62740765
aF159.92446058
aF159.95320028
aF159.95320028
aF159.97059445
aF161.22572937
aF163.5726314
aF161.59640389
aF161.62282138
asVBTC-GNO
p259
(lp260
F14.47893789
aF14.58805312
aF14.59238403
aF14.97795307
aF14.97795307
aF14.98241149
aF14.87256001
aF15.05017308
aF15.12392232
aF15.16732355
aF15.13661825
aF15.13661825
aF15.13540475
aF15.13540475
aF15.53766716
aF17.53146431
aF17.58633412
aF17.60763949
aF17.17683577
aF17.17683577
aF16.7240836
aF17.01409801
aF16.96052937
aF16.99424003
aF16.90443616
aF15.44698531
aF15.44698531
aF15.44698531
asVUSDT-ETC
p261
(lp262
F389784.85792776
aF391238.34423165
aF402409.16189686
aF402459.03689677
aF402793.76665864
aF409546.79300348
aF411500.2738592
aF410497.79036537
aF411942.65861196
aF411948.21761196
aF410931.52378629
aF410931.52378629
aF410848.58001586
aF397956.21376795
aF405091.99173693
aF407718.43678967
aF409464.46537635
aF409800.52085757
aF412160.30282804
aF414853.09852725
aF414873.39088237
aF419673.44908934
aF421874.76596839
aF423007.41205811
aF424337.03921674
aF427063.4333513
aF433220.2971262
aF435651.390712
asVBTC-GCR
p263
(lp264
F8.38467974
aF9.1715119
aF9.42353017
aF9.42462316
aF9.42462316
aF9.42462316
aF9.42435665
aF9.39077617
aF9.39077617
aF9.39181873
aF9.51650972
aF9.50850337
aF9.50850337
aF9.50655631
aF9.40680632
aF9.40786896
aF9.50952723
aF9.51180772
aF9.51180772
aF9.51180772
aF9.5045994
aF9.50129387
aF9.58185794
aF9.58185794
aF9.57138794
aF9.56576262
aF9.85647571
aF9.90575059
asVBTC-XEL
p265
(lp266
F240.72316593
aF242.862311
aF242.66212626
aF247.48239643
aF247.8114827
aF247.34992658
aF246.57349552
aF248.24213222
aF248.15234253
aF247.68055905
aF242.79525479
aF242.14009441
aF240.67551641
aF238.25828518
aF238.54840753
aF238.3845397
aF237.61826322
aF238.63859266
aF238.79043365
aF233.27921332
aF230.66463385
aF231.44782325
aF230.48025791
aF227.97180385
aF228.02534317
aF228.2777769
aF227.52982321
aF228.26092259
asVBTC-XEM
p267
(lp268
F369.41677486
aF369.81354816
aF368.78106406
aF368.89373837
aF369.05609729
aF369.94732677
aF370.17782433
aF371.93039
aF372.73300443
aF374.11486012
aF375.34311556
aF368.79236355
aF365.98295986
aF367.63294413
aF365.75978413
aF366.49818701
aF366.70548952
aF366.36982258
aF367.15405368
aF367.54779849
aF363.73001835
aF367.41635933
aF368.04345721
aF369.2908002
aF360.60898185
aF363.99052758
aF371.64382859
aF374.93864009
asVBTC-NBT
p269
(lp270
F55.27827609
aF53.66541863
aF54.41464694
aF54.63926144
aF54.63926144
aF54.64381177
aF54.29276512
aF54.36173576
aF54.36173576
aF53.808436
aF53.79538269
aF53.78462105
aF53.62029463
aF53.67384719
aF54.95607208
aF54.98960568
aF54.98960568
aF54.7202086
aF53.30978189
aF53.35980958
aF53.20778682
aF51.63426984
aF50.90726355
aF50.36672985
aF45.52723015
aF44.95320762
aF45.12493072
aF46.61018308
asVETH-FCT
p271
(lp272
F36.24489917
aF36.26610509
aF44.26108737
aF44.89707498
aF44.89707498
aF44.89707498
aF44.89707498
aF50.68683263
aF50.70683262
aF50.70683262
aF50.7758306
aF50.7758306
aF50.7758306
aF50.7758306
aF50.7758306
aF50.7758306
aF50.7758306
aF50.7758306
aF50.7758306
aF50.7758306
aF50.7758306
aF50.7758306
aF49.6811148
aF49.6811148
aF49.6811148
aF49.6811148
aF59.03141973
aF59.06394871
asVBTC-INFX
p273
(lp274
F5.23291051
aF5.23579615
aF5.91717199
aF6.52223724
aF6.76486339
aF6.75683146
aF6.98041579
aF6.98429999
aF7.06271098
aF11.29746356
aF11.56179487
aF11.60778148
aF11.64527191
aF11.44440503
aF11.47518964
aF11.5081534
aF11.62046381
aF11.642001
aF11.66100768
aF11.66549117
aF11.66549117
aF11.52626856
aF11.62440947
aF11.66525298
aF11.66525298
aF11.88405423
aF11.76018547
aF11.77044634
asVUSDT-NEO
p275
(lp276
F4886292.41741148
aF4879663.37735242
aF4868184.39193914
aF4815394.66115323
aF4805291.41596977
aF4803654.5806584
aF4833691.98018942
aF4828287.59069089
aF4850493.28592756
aF4879001.89844106
aF4886272.82507459
aF4904773.26317727
aF4900347.82899044
aF4874312.3107263
aF4855617.98339792
aF4864957.18195985
aF4869928.38046909
aF4887114.6527921
aF4866768.13175003
aF4875807.46531623
aF4878576.45072989
aF4854392.70380779
aF4847602.28105057
aF4861813.06196159
aF4847675.39015949
aF4830172.56895997
aF4862164.96820681
aF4852652.083649
asVBTC-HMQ
p277
(lp278
F9.22343961
aF9.42552669
aF9.43358195
aF9.02098364
aF9.01962914
aF8.48599297
aF8.89121101
aF9.35668288
aF9.30437844
aF9.31954444
aF9.21250375
aF9.21250375
aF9.35410952
aF16.12930114
aF16.2039072
aF16.33085888
aF16.01500497
aF16.04081886
aF16.02604783
aF16.16329684
aF16.17497039
aF16.26657422
aF16.28243483
aF16.78354278
aF16.89704899
aF16.86754974
aF16.88612763
aF16.85135563
asVBTC-SIB
p279
(lp280
F40.93067415
aF40.94528888
aF41.19083778
aF41.29233225
aF41.3645625
aF41.07850567
aF41.07850567
aF40.89681028
aF40.86963759
aF40.87057637
aF40.93897586
aF41.15116108
aF40.72249315
aF41.00465125
aF42.20877983
aF42.01277395
aF42.04477395
aF42.19574734
aF42.00464653
aF42.26582808
aF42.07150138
aF42.06570206
aF42.06570206
aF41.91144425
aF41.91144425
aF41.92484954
aF42.83978577
aF42.8959061
asVBTC-BLOCK
p281
(lp282
F32.96021579
aF33.14957242
aF33.15384788
aF33.15558855
aF32.97253676
aF33.42645521
aF33.54824196
aF33.07345544
aF32.13517489
aF32.06921648
aF32.06921648
aF32.0141094
aF32.00976428
aF32.07970731
aF32.06480213
aF32.1015258
aF31.48169316
aF31.05147204
aF31.06391756
aF32.40784094
aF32.93184655
aF33.12550494
aF33.12238838
aF33.25173571
aF37.47184428
aF37.87297724
aF38.13281161
aF38.12531813
asVBTC-FLDC
p283
(lp284
F48.2436866
aF46.90094035
aF44.13021087
aF40.96438679
aF40.15728358
aF31.5158243
aF24.00817484
aF22.37023134
aF22.37023134
aF21.43023617
aF20.07787583
aF19.69747793
aF19.64439719
aF19.64439719
aF19.29605199
aF19.29605199
aF19.0451596
aF18.89888391
aF18.89888391
aF18.88711645
aF18.98190359
aF18.98190359
aF18.97946458
aF18.97946458
aF18.97946458
aF19.29242659
aF19.30697156
aF19.28632255
asVBTC-LBC
p285
(lp286
F53.40489609
aF53.29998719
aF52.85154425
aF52.82589505
aF52.72022443
aF52.51942005
aF52.41662569
aF52.2661599
aF52.22098074
aF52.96558995
aF53.26699746
aF53.28004109
aF53.35855223
aF56.25989732
aF56.88696662
aF57.24176653
aF57.36166839
aF57.39457172
aF57.08573901
aF57.63531749
aF57.70016692
aF56.62773867
aF57.07581319
aF56.88463593
aF57.08378347
aF56.97807346
aF57.08354322
aF57.56584022
asVETH-MYST
p287
(lp288
F42.77912823
aF42.77912823
aF42.77912823
aF42.77912823
aF42.64130245
aF45.36203201
aF44.14446717
aF44.14446717
aF43.83895365
aF43.76284856
aF43.76284856
aF43.8658733
aF43.8658733
aF43.8658733
aF43.8658733
aF44.12604007
aF46.44449271
aF46.44449271
aF46.44449271
aF46.44449271
aF46.44449271
aF46.44449271
aF46.44449271
aF46.27399437
aF46.27399437
aF46.27399437
aF49.93944753
aF51.06287121
asVETH-TKN
p289
(lp290
F115.55839072
aF116.34148423
aF116.65280473
aF116.65280473
aF116.31081456
aF116.81907611
aF117.13465816
aF117.13465816
aF117.13465816
aF117.13465816
aF117.12451439
aF117.12451439
aF117.12451439
aF117.12451439
aF117.12451439
aF115.02164516
aF113.85071386
aF113.86071386
aF113.86071386
aF113.86071386
aF113.80180654
aF113.80180654
aF114.08142346
aF114.08142346
aF114.08142346
aF113.24977371
aF114.47133655
aF116.16576892
asVBTC-BAT
p291
(lp292
F1691.74603118
aF1680.9732628
aF1630.52572487
aF1591.49487309
aF1577.52891745
aF1561.69112908
aF1525.24311725
aF1520.35006274
aF1512.89666314
aF1494.6681206
aF1450.06016187
aF1434.20847022
aF1422.4873025
aF1409.85207022
aF1402.35117897
aF1395.18987048
aF1386.06483384
aF1380.72163843
aF1386.57433552
aF1382.86016996
aF1378.97098774
aF1380.52559567
aF1387.54247784
aF1401.61692145
aF1452.43440386
aF1454.63357759
aF1508.00494747
aF1541.89986156
asVBTC-BURST
p293
(lp294
F35.595654
aF35.37048173
aF37.4551797
aF38.40841067
aF38.07255353
aF37.72244408
aF37.71805373
aF37.86554948
aF37.80228543
aF37.95868737
aF37.95939829
aF37.83846219
aF37.69688056
aF37.77609458
aF37.78586473
aF37.0793549
aF34.57117941
aF34.70011618
aF34.99666624
aF35.00020172
aF35.07784965
aF35.2382456
aF35.19192785
aF35.19716191
aF35.19716191
aF35.23726013
aF35.17173167
aF35.19823284
asVBTC-2GIVE
p295
(lp296
F20.2050269
aF22.0994389
aF22.18338341
aF22.17167187
aF22.60507291
aF22.59278198
aF22.57603629
aF22.58705632
aF22.7002153
aF22.7002153
aF22.72697423
aF22.72961423
aF22.73061422
aF22.73359917
aF22.25645458
aF22.25645458
aF22.26844704
aF22.27388816
aF22.27314352
aF22.37261648
aF22.37261648
aF22.37261648
aF22.38025131
aF22.35435354
aF22.38034754
aF22.36945343
aF22.63448582
aF22.61789697
asVBTC-GRC
p297
(lp298
F22.95662398
aF22.95603417
aF21.88373339
aF21.7755531
aF21.01289932
aF20.30883549
aF20.23173255
aF21.08094174
aF20.7767721
aF20.62101697
aF20.35019139
aF20.18141768
aF20.1244818
aF18.98921411
aF18.43491828
aF18.68873174
aF18.60684326
aF19.08643412
aF19.06783497
aF18.98690137
aF18.79432267
aF18.80151226
aF18.80151226
aF18.91544235
aF18.93541929
aF18.91532692
aF18.89894962
aF18.86929074
asVBTC-BAY
p299
(lp300
F61.54933424
aF61.79892709
aF61.12015738
aF61.10037492
aF60.85493846
aF60.85543212
aF60.83835804
aF58.3118891
aF57.50219221
aF57.49982632
aF57.96821324
aF57.84669062
aF57.71991916
aF56.40321917
aF55.78546435
aF55.78473621
aF55.25193418
aF55.24647163
aF54.80913473
aF54.80173235
aF54.32619997
aF54.28440515
aF54.24720547
aF54.23282961
aF54.2203329
aF54.50292085
aF53.74531156
aF54.31059822
asVBTC-NLG
p301
(lp302
F18.50539821
aF18.43856933
aF18.4449384
aF18.37393604
aF19.02269034
aF19.04302459
aF18.98498555
aF18.93723975
aF18.93989714
aF18.9359803
aF19.04723455
aF19.04723455
aF19.04000803
aF18.93500138
aF18.9218555
aF18.2884272
aF19.46116807
aF19.45248018
aF19.42391941
aF19.43156336
aF19.42652998
aF19.38597303
aF19.40430292
aF19.40414893
aF19.40960507
aF19.40960507
aF19.42864317
aF19.38394672
asVBTC-ANT
p303
(lp304
F22.4074691
aF22.4074691
aF22.14229943
aF22.02508166
aF22.19086142
aF22.29054651
aF22.23253185
aF21.88415024
aF21.90588752
aF21.87744984
aF22.0193697
aF22.0193697
aF21.92875476
aF21.9648877
aF22.30300681
aF22.30799859
aF21.79129593
aF21.80372531
aF21.81508101
aF23.67783492
aF23.67783492
aF23.68612836
aF24.394022
aF24.40002513
aF24.40437845
aF24.44072232
aF24.46182211
aF24.45226462
asVBTC-TKN
p305
(lp306
F112.95730914
aF113.77456325
aF112.3330333
aF113.27137378
aF116.16674692
aF117.17219636
aF117.20335504
aF117.88306318
aF118.25190801
aF119.16651574
aF119.30039639
aF119.25641191
aF119.24252934
aF117.90414652
aF118.44699903
aF118.35246352
aF118.17106191
aF117.19176379
aF116.89532554
aF118.83436663
aF118.94875994
aF118.99970413
aF119.00733894
aF119.19427746
aF119.1727919
aF119.2259219
aF119.19485941
aF120.33445391
asVBTC-DMD
p307
(lp308
F84.68624322
aF82.38599392
aF82.03917162
aF80.93574316
aF81.01401756
aF81.06384442
aF81.66190768
aF82.92275262
aF79.15977304
aF74.46922802
aF77.17619277
aF74.86265668
aF74.86265668
aF70.84419944
aF70.84419944
aF70.14912378
aF69.85794789
aF70.17354793
aF69.55131121
aF69.44724365
aF68.53716137
aF68.67291528
aF69.48170738
aF69.67640287
aF69.96368875
aF69.72892986
aF69.67791633
aF69.59523359
asVBTC-TKS
p309
(lp310
F5.45563564
aF5.56303077
aF5.34440948
aF5.34440948
aF5.32779295
aF5.2982906
aF5.28579371
aF5.27220592
aF6.20519444
aF6.20719393
aF6.21719391
aF6.20790219
aF6.19678836
aF6.1979791
aF6.2007291
aF6.06843845
aF6.06843845
aF6.06843845
aF6.06347232
aF5.97241001
aF5.97241001
aF6.17824054
aF6.18069125
aF6.18069125
aF5.96989065
aF5.97736185
aF5.95958707
aF5.9547038
asVBTC-GRS
p311
(lp312
F46.51242908
aF46.5756756
aF46.44443861
aF46.44443861
aF46.09251911
aF45.86152096
aF46.53827182
aF46.50266307
aF46.6460458
aF46.64604377
aF47.14115904
aF47.81174082
aF47.82141407
aF47.67335619
aF48.16367269
aF48.16179611
aF47.95149436
aF47.75507084
aF47.57618548
aF50.23461306
aF52.09900988
aF52.4949966
aF54.65926617
aF54.63541013
aF54.96257715
aF53.96499719
aF53.87720023
aF53.73923496
asVUSDT-BCC
p313
(lp314
F1205249.31470861
aF1207762.51945898
aF1209847.90225321
aF1233736.4765494
aF1224804.96678539
aF1224804.96678539
aF1272865.25697089
aF1275517.91559938
aF1270991.95359909
aF1264189.84859027
aF1263491.47247006
aF1204007.05973325
aF1193923.04123831
aF1180343.29191477
aF1180592.47288156
aF1173156.41407502
aF1170856.58389539
aF1171412.08783134
aF1171328.21434191
aF1171174.19061993
aF1173145.99526869
aF1171316.1091927
aF1171853.80262706
aF1171434.16096439
aF1193200.59697608
aF1232704.66047714
aF1241421.07117957
aF1242266.76345456
asVBTC-FCT
p315
(lp316
F76.0778162
aF76.15739998
aF77.25156073
aF78.72230272
aF78.64566408
aF79.57324536
aF79.98836872
aF80.22865203
aF80.11131918
aF79.38450347
aF79.83402819
aF79.839784
aF79.93896776
aF79.92196759
aF79.94293755
aF82.96990498
aF82.84784642
aF82.62213439
aF82.72898181
aF82.80252758
aF82.95747304
aF83.58912744
aF83.67273447
aF83.29649202
aF83.32236449
aF83.38032224
aF83.38837355
aF84.1931988
asVBTC-XDN
p317
(lp318
F10.91270695
aF10.90899693
aF11.17633018
aF11.18331539
aF11.14315207
aF11.14682896
aF10.86255874
aF10.79965466
aF10.80556766
aF10.73554653
aF10.72917276
aF10.710808
aF10.72347973
aF10.87316885
aF10.87316885
aF10.81500815
aF10.82760505
aF12.06323998
aF12.05611367
aF12.1097705
aF12.1097705
aF12.09343162
aF12.09184162
aF12.08280252
aF12.08280252
aF11.97858766
aF11.87403865
aF11.90412365
asVETH-LUN
p319
(lp320
F367.95530067
aF367.98406937
aF367.75639688
aF368.03891623
aF379.0879583
aF380.15316256
aF380.15316256
aF370.70805797
aF370.70619075
aF371.3344327
aF380.96858304
aF380.96858304
aF380.96858304
aF380.96858304
aF380.96858304
aF380.96858304
aF380.96858304
aF381.30991076
aF400.42702946
aF401.61726678
aF399.06338468
aF401.3771389
aF406.11876711
aF406.40873573
aF388.15371603
aF388.15371603
aF389.37508459
aF390.06447107
asVBTC-QTUM
p321
(lp322
F1369.90166077
aF1372.88904633
aF1382.79048475
aF1389.75332131
aF1401.75460343
aF1405.22578828
aF1411.98907785
aF1412.0725963
aF1415.0370491
aF1416.18789735
aF1423.21102926
aF1432.55246517
aF1437.5812694
aF1428.03470066
aF1429.84920809
aF1430.77585063
aF1430.37578548
aF1429.81937574
aF1433.94462424
aF1428.56996516
aF1425.28078343
aF1425.05444739
aF1427.07154575
aF1428.77517734
aF1431.65500495
aF1428.86329113
aF1437.05198469
aF1442.84995691
asVBTC-DOGE
p323
(lp324
F336.85384085
aF346.96114943
aF334.30466911
aF334.05790748
aF334.18107172
aF333.95878748
aF334.22761724
aF332.38975263
aF336.63528805
aF337.78102804
aF340.77514519
aF338.25319474
aF338.74449647
aF338.03465252
aF336.66247938
aF334.83555192
aF334.94086584
aF332.02267882
aF331.16509203
aF327.76945207
aF325.84472537
aF329.73173376
aF330.30578847
aF329.78046336
aF330.23906388
aF330.10916731
aF329.98309364
aF331.56312534
asVBTC-LTC
p325
(lp326
F992.62105865
aF995.55384607
aF998.01657963
aF1004.87918739
aF994.45049083
aF996.6214248
aF994.52458581
aF987.96792827
aF981.99380074
aF978.70413779
aF980.7559907
aF979.67867748
aF979.98343382
aF978.14112075
aF976.93613559
aF978.98240163
aF978.80019255
aF979.42336369
aF980.37835841
aF977.85375199
aF976.23977503
aF981.27673268
aF976.81601541
aF976.82541501
aF968.34265735
aF970.14704035
aF967.30070478
aF968.56369223
asVBTC-LMC
p327
(lp328
F412.2357774
aF410.78253888
aF411.1539363
aF413.14295552
aF409.87886518
aF408.90427604
aF409.25109428
aF409.05352387
aF405.9582617
aF405.18463017
aF404.23598448
aF404.52148566
aF402.11223428
aF402.30405184
aF402.45428355
aF401.85300208
aF399.95436457
aF398.07087162
aF395.32721469
aF390.22414991
aF388.13784307
aF385.91770522
aF371.37608028
aF361.10510517
aF358.28572437
aF357.00516112
aF358.58952917
aF360.86695288
asVBTC-BLITZ
p329
(lp330
F4.70654897
aF4.70570845
aF4.70484507
aF4.70484507
aF4.7024904
aF4.78276558
aF4.98038665
aF4.98334121
aF4.98710121
aF4.89562622
aF4.81860174
aF4.70706953
aF4.70706953
aF4.65731651
aF4.65731651
aF4.65731651
aF4.71006564
aF4.70893316
aF4.70893316
aF4.32286283
aF4.30298546
aF4.30421738
aF4.34009874
aF4.3428423
aF4.3428423
aF4.34339742
aF4.06715417
aF4.06715417
asVBTC-GBYTE
p331
(lp332
F30.87649059
aF28.22438538
aF29.40186994
aF29.40744292
aF29.2675066
aF29.25752905
aF29.50644442
aF29.57008075
aF30.62015097
aF30.62015097
aF30.66607855
aF30.66607855
aF30.35682851
aF30.54508153
aF30.54508153
aF30.52422966
aF30.40943225
aF33.36163077
aF33.34954295
aF33.34954295
aF33.41601384
aF33.41601384
aF33.22133384
aF33.27724052
aF34.48414741
aF33.09594172
aF33.18886267
aF33.20202448
asVETH-XRP
p333
(lp334
F1127.81961025
aF1128.22159943
aF1128.24349313
aF1128.19165448
aF1128.4045732
aF1127.93206244
aF1127.32650545
aF1125.7676896
aF1125.5492656
aF1124.68345042
aF1127.4029185
aF1128.81085462
aF1128.79322033
aF1127.75566811
aF1112.69483518
aF1112.69483518
aF1114.60397211
aF1112.23528706
aF1163.49077077
aF1164.96521892
aF1169.37674311
aF1110.8788997
aF1062.42916643
aF1068.55953714
aF1120.61737303
aF870.21376011
aF877.88362551
aF888.0779958
asVETH-ANT
p335
(lp336
F17.93326746
aF17.93326746
aF17.93326746
aF16.43027678
aF16.43027678
aF16.43027678
aF14.62675536
aF14.16943547
aF14.16943547
aF14.16605244
aF14.14463549
aF14.14463549
aF14.14463549
aF14.14463549
aF14.14463549
aF14.14463549
aF14.14463549
aF14.14463549
aF14.14463549
aF15.03116568
aF15.03116568
aF15.03116568
aF15.11575012
aF15.11575012
aF15.11575012
aF15.11575012
aF17.43206636
aF17.43206636
asVETH-CRB
p337
(lp338
F8.32040572
aF8.32040572
aF8.32040572
aF8.32040572
aF8.32040572
aF8.32040572
aF8.32040572
aF8.32040572
aF8.32040572
aF8.32040572
aF8.32040572
aF8.25472927
aF8.03740576
aF8.03740576
aF8.03740576
aF8.03740576
aF8.03740576
aF8.03740576
aF8.03740576
aF8.03740576
aF8.03740576
aF8.03740576
aF8.03740576
aF8.03740576
aF8.03740576
aF9.04724849
aF9.69887873
aF9.69887873
asVBTC-STORJ
p339
(lp340
F168.07747768
aF168.04705463
aF168.92898093
aF169.77967811
aF169.84697749
aF170.6744982
aF170.40013329
aF169.07682604
aF169.18694363
aF169.58929353
aF169.5164634
aF169.48106798
aF169.95844376
aF170.01310644
aF170.28450888
aF171.14805526
aF171.51914288
aF171.45220294
aF173.1684419
aF175.66593146
aF177.29084135
aF177.38408907
aF177.93812318
aF178.27993555
aF178.45299645
aF178.32256026
aF178.36757495
aF179.00131019
asVUSDT-XRP
p341
(lp342
F687221.0215823
aF687755.43203226
aF686340.07268397
aF695563.8061407
aF698733.98971169
aF699331.29324968
aF706859.60968808
aF707371.70132818
aF705777.1810086
aF703962.44228985
aF706545.87407772
aF706505.15976599
aF706517.83289467
aF706487.93317453
aF697650.53343246
aF692458.79086555
aF693289.92257793
aF691751.80775679
aF690775.07426748
aF686783.05663569
aF691279.49429739
aF690822.03143282
aF692851.92153524
aF681820.58008353
aF680129.41921011
aF681957.4273015
aF702930.10143334
aF703069.02198656
asVBTC-MEME
p343
(lp344
F8.7519402
aF8.79153817
aF8.79153817
aF8.79448402
aF8.79448402
aF8.79448402
aF8.8416194
aF8.81736758
aF8.81736758
aF8.81794485
aF8.69484724
aF8.69484724
aF8.69428358
aF8.70641328
aF8.71022328
aF8.90667666
aF8.90667666
aF8.90667666
aF8.91848766
aF8.91948765
aF8.91948765
aF8.91948765
aF8.83880956
aF8.84280955
aF8.96653298
aF9.23943561
aF9.33810484
aF9.33810484
asVBTC-CFI
p345
(lp346
F174.61378461
aF173.76677493
aF174.84502829
aF175.23460072
aF176.47835365
aF176.03679967
aF176.08254313
aF175.65645766
aF175.41724481
aF176.40132878
aF176.89969427
aF176.3368965
aF177.33895346
aF177.51285953
aF178.49002976
aF178.71241673
aF178.96137085
aF179.89413217
aF177.60069605
aF178.30343915
aF180.1086398
aF180.06573568
aF179.82368703
aF180.02391576
aF180.12495656
aF182.38413415
aF183.09207846
aF183.4440747
asVBTC-XMR
p347
(lp348
F306.2785784
aF304.65771922
aF304.33899035
aF307.50962916
aF307.80672152
aF308.38981105
aF309.48560027
aF309.94714536
aF312.79461237
aF315.05397976
aF314.85402022
aF311.68128842
aF311.10745147
aF311.39339925
aF308.86816387
aF308.22336393
aF308.1111114
aF299.83541365
aF299.23756383
aF303.97018753
aF303.98732334
aF304.60552418
aF304.75296658
aF306.07382452
aF302.053068
aF302.87105972
aF299.06979497
aF302.90023385
asVBTC-DGD
p349
(lp350
F24.79353665
aF24.79353665
aF24.79353665
aF20.07432923
aF20.07931673
aF20.09052089
aF19.64613893
aF19.64613893
aF19.66578438
aF19.66690464
aF19.80326875
aF19.79607761
aF19.79607761
aF19.79607761
aF19.90005716
aF20.1480938
aF23.60774883
aF23.57893378
aF23.59628612
aF23.59628612
aF23.27440769
aF23.20334804
aF23.19923658
aF22.69581437
aF22.69581437
aF22.51800502
aF22.36297368
aF22.36397358
asVBTC-NEOS
p351
(lp352
F24.92595035
aF24.92811823
aF24.99535159
aF25.05600049
aF25.73939022
aF25.92091895
aF25.66888516
aF25.71843151
aF26.00986538
aF26.02235369
aF26.13386802
aF26.13386802
aF26.57499649
aF26.78692011
aF26.96840664
aF26.97009243
aF26.97009243
aF26.99922832
aF27.00011607
aF27.00190783
aF27.24372432
aF27.24372432
aF27.32512183
aF27.3743265
aF27.3743265
aF27.3497262
aF27.48944953
aF27.52623807
asVBTC-QRL
p353
(lp354
F17.01987213
aF17.05174988
aF17.02541114
aF17.02541114
aF17.01120588
aF16.91996933
aF16.91996933
aF16.23817579
aF16.12574663
aF16.22549661
aF16.52665442
aF16.54298099
aF16.43111541
aF16.44465241
aF16.57868722
aF16.58142298
aF16.68164496
aF16.64947541
aF16.65220266
aF16.6532876
aF16.6532876
aF16.6532876
aF16.60045191
aF16.70916891
aF16.6813605
aF16.6813605
aF16.68505219
aF16.688408
asVBTC-XAUR
p355
(lp356
F19.59956892
aF19.72156973
aF19.68995493
aF20.10416665
aF20.06321358
aF20.03023194
aF20.03172842
aF19.95708937
aF19.89796204
aF20.52335165
aF21.27973899
aF21.30096459
aF21.18288255
aF21.55172524
aF21.64012066
aF21.76635953
aF22.14814456
aF22.19434302
aF22.19434302
aF22.19434302
aF22.21009465
aF21.32982185
aF21.36197677
aF21.36197677
aF21.36197677
aF21.28923485
aF21.28923485
aF20.50132832
asVUSDT-XMR
p357
(lp358
F288398.95485199
aF288058.09068691
aF288116.13274534
aF288201.68164539
aF287973.76875538
aF288820.77490541
aF286705.08828423
aF286705.08828423
aF285893.44824137
aF285893.44824137
aF287390.4022514
aF305351.09310623
aF307250.7931064
aF307142.43053275
aF304759.49997656
aF308415.87040371
aF310857.20898988
aF311825.62455987
aF311184.23643411
aF306220.58280567
aF306468.90426173
aF305513.76034403
aF305471.69607731
aF307711.32991594
aF296466.92224246
aF290886.49815179
aF286609.47440855
aF286964.41118486
asVBTC-BYC
p359
(lp360
F8.70276112
aF8.72043889
aF8.79553679
aF9.04565327
aF9.56964438
aF9.57016957
aF9.49546929
aF9.61976116
aF9.60950396
aF9.64277208
aF9.63398382
aF9.63398382
aF9.63735636
aF9.66806908
aF9.67306907
aF9.62469941
aF9.62469941
aF9.62469941
aF9.70358601
aF9.79142772
aF9.79214386
aF9.80718733
aF9.80718733
aF9.74069184
aF9.74309184
aF9.74429184
aF9.61761023
aF9.63535339
asVETH-NMR
p361
(lp362
F8.30057914
aF8.30057914
aF5.97614064
aF4.28967018
aF4.28967018
aF6.50279561
aF6.50279561
aF6.57319569
aF7.59754534
aF7.59754534
aF7.59754534
aF7.59754534
aF7.7006731
aF9.19830862
aF14.2681323
aF14.2681323
aF14.2681323
aF14.2681323
aF14.2681323
aF15.08967109
aF15.08967109
aF15.08967109
aF15.08967109
aF15.09987618
aF15.11007617
aF15.11007617
aF15.16495748
aF15.16495748
asVBTC-STEEM
p363
(lp364
F107.66008721
aF108.79452641
aF109.78030058
aF109.75492122
aF110.49060117
aF110.68410637
aF111.54930766
aF111.48123032
aF109.88795045
aF109.49204446
aF109.28794566
aF109.89214789
aF109.12084085
aF109.1762524
aF109.13479226
aF109.10038558
aF108.86691213
aF108.74179047
aF108.0841836
aF108.10129828
aF107.48550502
aF107.48545897
aF107.4478105
aF108.18571574
aF108.21545994
aF106.68813722
aF106.81342722
aF107.12061137
asVUSDT-ZEC
p365
(lp366
F650639.57413624
aF653758.91111645
aF651043.39347569
aF655422.28170809
aF656538.43941124
aF656750.3982094
aF656798.0481755
aF656690.78835552
aF654842.11015576
aF655003.68505227
aF655003.68505227
aF655003.68505227
aF655003.87102352
aF652022.68261319
aF652282.85019334
aF652304.67399912
aF653644.49449615
aF653613.55495806
aF653613.55495806
aF653601.069028
aF656462.68227934
aF659551.28005643
aF659440.75000623
aF661903.07799232
aF746018.31071829
aF806975.76577196
aF883598.48208524
aF883657.07325117
asVBTC-IOC
p367
(lp368
F42.62324486
aF42.4857084
aF42.54851651
aF42.55511675
aF42.77679942
aF42.89864661
aF42.89864661
aF42.84160746
aF42.84160746
aF42.91637575
aF42.78620827
aF42.71368109
aF44.2944321
aF44.40363515
aF47.62680462
aF48.89862851
aF48.9407132
aF48.95782388
aF48.84644901
aF48.86194884
aF48.84067449
aF48.84067449
aF47.52901626
aF47.70566925
aF47.91543522
aF48.30700911
aF47.92805259
aF48.11812091
asVBTC-RBY
p369
(lp370
F3.78728924
aF3.7921289
aF3.7921289
aF3.7921289
aF3.7921289
aF3.7921289
aF5.48877132
aF5.38403944
aF5.38403944
aF5.38314474
aF5.38314474
aF5.38314474
aF5.38174574
aF5.38174574
aF8.87611608
aF8.87611608
aF6.88368432
aF6.88899998
aF6.88899998
aF6.72408138
aF6.72549488
aF6.52594959
aF6.52594959
aF6.50043814
aF6.50038366
aF6.29942808
aF6.29942808
aF6.2729163
asVBTC-XMG
p371
(lp372
F55.55058257
aF55.5638208
aF55.58635273
aF55.50271531
aF55.60730919
aF55.60730919
aF55.5022331
aF55.73885359
aF55.88672134
aF56.16840769
aF56.55850957
aF56.51803594
aF56.63164315
aF56.8277529
aF56.92747371
aF56.93009842
aF56.92945988
aF56.92945988
aF56.9154248
aF56.93088594
aF56.87294102
aF56.81244445
aF56.75054201
aF56.75054201
aF56.75054201
aF56.44160853
aF56.2461117
aF56.26529753
asVBTC-MUSIC
p373
(lp374
F38.96240951
aF38.96339679
aF38.90425942
aF38.21747605
aF38.20665647
aF38.18484169
aF38.20545472
aF38.62022888
aF38.62584626
aF38.19498117
aF37.9274753
aF38.37275112
aF38.28426508
aF36.03246457
aF36.05190349
aF35.84802093
aF35.27424942
aF35.22182935
aF35.18368269
aF35.06689402
aF33.17427499
aF33.38683548
aF33.02402396
aF32.54617047
aF32.59135056
aF32.59625625
aF32.32405315
aF32.50298482
asVBTC-UBQ
p375
(lp376
F204.85788162
aF207.60202401
aF211.54902785
aF211.32689453
aF209.5813694
aF209.75456832
aF209.64562764
aF210.69665059
aF210.68709729
aF210.04813843
aF210.18609943
aF209.47903801
aF209.71129641
aF210.15518612
aF210.23090062
aF210.26430012
aF209.90560316
aF210.20648619
aF210.49125188
aF210.44297269
aF210.13277542
aF210.06600852
aF210.56510406
aF210.12859099
aF209.64451161
aF209.78106417
aF209.39444137
aF210.11612307
asVETH-BTS
p377
(lp378
F789.4768098
aF788.87518647
aF786.94468505
aF787.40189463
aF807.36904251
aF831.88909788
aF831.88909788
aF805.72192661
aF805.72192661
aF802.326587
aF802.326587
aF805.90250852
aF805.90250852
aF805.90250852
aF805.58836124
aF802.07657738
aF808.24197404
aF808.17927989
aF808.08226686
aF808.07290232
aF807.6345697
aF807.6345697
aF807.6345697
aF808.52080534
aF809.24261191
aF807.90904206
aF819.12195103
aF819.12195103
asVETH-QRL
p379
(lp380
F43.30566767
aF43.30566767
aF43.30566767
aF43.30566767
aF43.30566767
aF43.30824242
aF43.30824242
aF42.97656436
aF42.49874906
aF43.04477381
aF43.04477381
aF43.04477381
aF55.80158247
aF55.80158247
aF55.80158247
aF56.05433504
aF56.1770972
aF55.99956312
aF55.99956312
aF55.99956312
aF55.99956312
aF55.99956312
aF55.99956312
aF55.99956312
aF55.99956312
aF55.99956312
aF55.99956312
aF55.99956312
asVBTC-SNRG
p381
(lp382
F5.48064954
aF5.3719176
aF5.3731593
aF5.3731593
aF5.12112771
aF5.12112771
aF5.06060233
aF4.8214312
aF4.8214312
aF4.8208812
aF4.8208812
aF4.78922239
aF4.76940001
aF4.779695
aF4.71750443
aF4.71750443
aF4.71750443
aF4.67270076
aF4.67270076
aF4.64804499
aF4.64804499
aF4.64855711
aF4.83536459
aF4.94062408
aF4.94062408
aF4.94062408
aF4.94062408
aF4.93700913
asVBTC-INCNT
p383
(lp384
F8.91494665
aF8.91494665
aF9.02357867
aF9.20615774
aF9.63272356
aF9.73547037
aF9.74809975
aF9.92521856
aF9.95495537
aF9.94064803
aF9.9380267
aF9.94093615
aF9.79138284
aF9.79962563
aF9.80137505
aF9.7988307
aF9.8154327
aF9.8333727
aF9.83721443
aF9.9233674
aF9.92755382
aF10.2449461
aF10.20724324
aF10.23436574
aF10.3348378
aF10.34281626
aF10.38520161
aF10.39974861
asVBTC-GLD
p385
(lp386
F29.54435349
aF29.54439628
aF29.49596483
aF29.43622121
aF29.37967946
aF29.38971275
aF29.13327284
aF29.13327288
aF29.13326467
aF29.34331178
aF29.48257065
aF29.33073741
aF29.28112063
aF22.22983153
aF21.63029284
aF21.46635737
aF20.97116562
aF20.96132313
aF20.59549452
aF20.39784622
aF18.78189957
aF17.36850098
aF17.36849945
aF17.40100322
aF17.34825338
aF17.34822901
aF17.29164132
aF17.29110793
asVBTC-ION
p387
(lp388
F9.13083327
aF9.13083327
aF7.93717584
aF7.92121336
aF7.92121336
aF7.91791336
aF7.97120574
aF8.02362468
aF8.02362468
aF7.99057314
aF7.76416398
aF7.76416398
aF6.7054247
aF6.7043614
aF6.7043614
aF6.64235591
aF6.64030428
aF6.64719145
aF6.78977803
aF6.79589207
aF6.68085951
aF6.68085951
aF6.69588446
aF6.81372107
aF6.8233568
aF6.8233568
aF6.8233568
aF6.6512793
asVBTC-KORE
p389
(lp390
F1625.25977486
aF1627.49078297
aF1624.24292939
aF1623.97457063
aF1631.44370844
aF1632.07042584
aF1646.53240278
aF1658.70626664
aF1661.3494187
aF1667.67707588
aF1671.17306308
aF1669.6485282
aF1677.23701863
aF1678.42771207
aF1686.17211853
aF1683.2136505
aF1682.8309523
aF1689.42321569
aF1693.07467076
aF1699.54717624
aF1698.13377367
aF1700.91636927
aF1701.58007673
aF1701.87987274
aF1701.97465122
aF1702.31672961
aF1703.37984414
aF1702.24016513
asVBTC-PTOY
p391
(lp392
F319.91576436
aF320.74102297
aF318.00807224
aF318.82961657
aF318.26990919
aF320.29747308
aF320.58931493
aF318.71264901
aF320.98932879
aF322.24258663
aF322.47060687
aF323.72367536
aF325.62816086
aF325.01010677
aF325.55543456
aF328.44766664
aF329.10796242
aF331.40477252
aF331.05324019
aF324.10747151
aF317.76936717
aF315.84030796
aF313.6344029
aF312.04044369
aF310.72714124
aF310.83216051
aF307.83506349
aF305.80938994
asVBTC-SPR
p393
(lp394
F7.7714445
aF7.77236937
aF8.22265057
aF8.2660319
aF10.86791095
aF10.88203354
aF10.88560668
aF11.50182761
aF11.51858854
aF11.64042049
aF11.64275202
aF11.64432271
aF11.65821221
aF11.65821221
aF11.659825
aF11.659825
aF11.59486105
aF11.60536679
aF11.60536679
aF11.60536679
aF11.60536679
aF11.60536679
aF11.60536679
aF11.42349704
aF11.42349704
aF11.42349704
aF11.42242654
aF11.42242654
asVBTC-CURE
p395
(lp396
F3.25190205
aF3.25190205
aF3.15136158
aF3.15136158
aF3.15136158
aF3.15187558
aF3.15566608
aF3.15566608
aF3.15566608
aF3.15566608
aF3.17816325
aF3.25390453
aF3.28432438
aF3.28531437
aF3.28531437
aF3.28531437
aF3.28531437
aF3.28531437
aF3.27127495
aF3.27229335
aF3.28026693
aF2.81415541
aF2.81415541
aF2.81415541
aF2.8180602
aF2.8480762
aF2.8480762
aF2.8480762
asVBTC-DCR
p397
(lp398
F124.95979747
aF127.17161382
aF126.68866651
aF128.00946622
aF126.89730618
aF129.79166387
aF138.917606
aF139.49504854
aF139.47256123
aF140.52576671
aF140.01512533
aF138.86584171
aF138.70248858
aF133.09519826
aF131.65955532
aF127.04592339
aF123.32455116
aF122.62130949
aF122.79674675
aF122.99323604
aF125.9145691
aF126.25812249
aF126.99718527
aF127.24566992
aF126.00440943
aF127.67980469
aF127.31735364
aF127.27181728
asVBTC-DCT
p399
(lp400
F38.4488629
aF38.2010791
aF39.47968446
aF39.55523214
aF39.79387323
aF39.64042125
aF40.39006756
aF40.40507773
aF41.65175558
aF42.07262316
aF42.10130388
aF41.96336493
aF41.54307349
aF39.16554584
aF39.19175529
aF39.03127105
aF39.03159684
aF39.03159684
aF38.78842173
aF38.71472433
aF38.72972962
aF38.72972962
aF38.72972962
aF38.62873775
aF36.65175844
aF36.60883824
aF36.76255672
aF36.75680525
asVBTC-KMD
p401
(lp402
F474.57792439
aF469.96232426
aF472.88107653
aF473.47181405
aF476.2640106
aF478.53812515
aF479.43820293
aF483.27513209
aF484.86699307
aF488.7602456
aF483.0222423
aF484.46137299
aF488.55945971
aF488.5960207
aF489.22651569
aF480.1047005
aF473.67170528
aF467.44734043
aF465.75775552
aF465.33942338
aF463.17446898
aF468.52234672
aF471.33185787
aF481.28093696
aF486.10771101
aF492.52507301
aF511.58079799
aF533.73059988
asVBTC-BSD
p403
(lp404
F4.67773426
aF4.77333406
aF4.82111578
aF4.83410617
aF4.85472565
aF4.88913842
aF4.88913842
aF5.4308671
aF5.4308671
aF5.43342609
aF5.43153897
aF5.67779064
aF6.28562246
aF7.42846533
aF9.22678735
aF9.23229965
aF8.98522272
aF8.9858148
aF8.9858148
aF9.8954928
aF9.8954928
aF9.99589961
aF9.99589961
aF10.00135154
aF10.00979868
aF10.00979868
aF10.02019523
aF9.9242725
asVUSDT-DASH
p405
(lp406
F289696.32374432
aF289901.09649783
aF293129.15632546
aF293765.64056071
aF293799.53559393
aF293815.54738851
aF293942.33809699
aF293942.33809699
aF293899.68451627
aF293897.68952056
aF294377.91266331
aF294959.95645516
aF294959.99334471
aF294372.14090788
aF293275.90364342
aF297047.48061011
aF313139.38060564
aF315038.34559769
aF315160.27892528
aF312857.33943537
aF313110.50818983
aF313188.77869018
aF315183.77869153
aF316132.80868021
aF316548.00434267
aF317498.26377765
aF317498.26377765
aF316675.01636091
asVBTC-FAIR
p407
(lp408
F2.5465582
aF2.5465582
aF2.55339391
aF2.55239392
aF2.55239392
aF2.55239392
aF2.53171758
aF2.53371192
aF2.55883652
aF2.55883652
aF2.65572616
aF2.68351602
aF2.68351602
aF2.67622602
aF2.67480767
aF2.7212369
aF2.74654318
aF2.74654318
aF2.74532472
aF2.73832434
aF2.73932184
aF2.74201509
aF2.65428406
aF3.03544877
aF3.03892361
aF3.04035483
aF3.05106303
aF3.05106303
asVETH-DASH
p409
(lp410
F100.29323486
aF101.58627273
aF102.59078072
aF107.39606402
aF107.39606402
aF107.41477282
aF107.41477282
aF107.41477282
aF107.52226811
aF107.52253442
aF110.0589684
aF108.30234519
aF110.00047512
aF110.35073849
aF113.41868673
aF129.17839372
aF130.03058954
aF130.66992326
aF131.46571008
aF131.63441966
aF131.58238513
aF132.14075398
aF131.75855326
aF133.64676062
aF148.7921297
aF154.02770444
aF154.90363626
aF154.90077563
asVBTC-QWARK
p411
(lp412
F40.8556785
aF40.87164543
aF41.66482451
aF41.77144692
aF41.50227508
aF41.56381844
aF41.58821344
aF41.63885395
aF41.61366827
aF41.57786294
aF41.52632339
aF41.08767074
aF41.07489541
aF41.05517961
aF41.13895614
aF41.28897774
aF41.25330037
aF41.25589516
aF41.25589516
aF41.13174032
aF41.14282168
aF41.27064491
aF41.11896083
aF41.09065304
aF41.09065304
aF40.77877097
aF40.7173088
aF40.66317394
asVBTC-EMC
p413
(lp414
F204.95674296
aF205.74746315
aF205.82270564
aF205.31752961
aF203.99074233
aF204.46909261
aF204.30032907
aF204.33532595
aF204.54233464
aF204.32554937
aF204.09225601
aF203.20549287
aF203.052933
aF199.99618682
aF200.21346076
aF199.72481304
aF197.94782704
aF197.78819762
aF196.93640548
aF196.64498868
aF193.056178
aF193.13154654
aF193.50418527
aF189.68718426
aF189.13354342
aF188.43782454
aF188.07688223
aF187.61536976
asVBTC-LSK
p415
(lp416
F642.96041705
aF642.8808376
aF643.99952103
aF645.98849664
aF644.35968783
aF645.69330256
aF640.72318062
aF633.04516264
aF629.3473534
aF626.7975
aF625.9809658
aF627.99481041
aF624.24364743
aF624.48246271
aF620.6055572
aF621.4892027
aF621.96941889
aF622.37066766
aF624.06443626
aF622.66138407
aF620.74370286
aF621.25994725
aF627.83854058
aF629.41905168
aF633.27378094
aF636.34823049
aF638.93196266
aF638.45210559
asVBTC-GAM
p417
(lp418
F12.07282534
aF12.07282534
aF12.07282534
aF12.07282534
aF12.07282534
aF12.07282534
aF12.07282534
aF12.07282534
aF12.07282534
aF12.07282534
aF12.07282534
aF12.06122067
aF12.06122067
aF12.06122067
aF12.06122067
aF12.06122067
aF12.06122067
aF12.05864077
aF12.0505942
aF12.05751425
aF11.98684675
aF11.98867006
aF11.99595699
aF11.96893126
aF11.96896478
aF11.96896478
aF11.96776478
aF11.96726926
asVBTC-PART
p419
(lp420
F40.80681846
aF40.80681846
aF40.78222471
aF40.78304985
aF40.78304985
aF40.72210645
aF44.61120612
aF44.6163116
aF44.37518042
aF39.30380728
aF39.30380728
aF39.40155302
aF39.56175825
aF39.56175825
aF39.58372195
aF39.17509128
aF39.19032608
aF39.17540236
aF39.17540236
aF39.17540236
aF39.16780995
aF39.16780995
aF39.16273846
aF39.14027582
aF39.06288441
aF39.13030702
aF39.1047221
aF39.03482661
asVBTC-APX
p421
(lp422
F10.9351175
aF10.69249096
aF10.69249096
aF10.69744584
aF10.65675859
aF10.65675859
aF10.83044715
aF10.83044715
aF10.9902657
aF10.9902657
aF11.47717691
aF11.47717691
aF13.30801077
aF13.23326999
aF13.23326999
aF13.29206537
aF13.33697017
aF13.24783707
aF13.27117098
aF13.27212813
aF13.27212813
aF13.27212813
aF13.27115448
aF13.27115448
aF13.27444822
aF13.27938797
aF13.27938797
aF13.25558276
asVETH-MTL
p423
(lp424
F49.12364114
aF49.12364114
aF52.70949008
aF51.72449632
aF51.72449632
aF48.89316078
aF48.43899209
aF48.43899209
aF48.43899209
aF48.43899209
aF48.83424051
aF48.83424051
aF47.77773699
aF47.77841613
aF47.62913185
aF47.62913185
aF48.62730908
aF49.43377141
aF49.43377141
aF47.56609827
aF47.56609827
aF47.56609827
aF47.56609827
aF48.01376093
aF47.47522814
aF47.88158268
aF67.57833397
aF68.04381719
asVBTC-BCY
p425
(lp426
F16.84519196
aF16.84234276
aF17.02024901
aF17.0918828
aF17.10528094
aF16.99442256
aF17.07706624
aF17.08804388
aF17.106856
aF17.40743963
aF17.42344591
aF17.42403868
aF17.65336215
aF17.59123675
aF17.58679159
aF17.58781279
aF17.35416563
aF17.0143537
aF16.84958571
aF16.84958571
aF16.85020599
aF16.85020599
aF16.91863598
aF16.91863598
aF16.82913891
aF16.82913891
aF16.96624892
aF16.96446209
asVBTC-EXCL
p427
(lp428
F8.70166184
aF8.39747757
aF8.39747757
aF8.0852613
aF8.0871513
aF8.04309911
aF8.04309911
aF8.04231916
aF8.04994605
aF8.05198308
aF8.00716336
aF8.00716336
aF8.05321443
aF8.04766124
aF8.050161
aF7.96119786
aF7.96119786
aF7.95996912
aF7.95996912
aF8.03546503
aF8.03546503
aF8.03546503
aF8.4001853
aF8.44846476
aF8.5314503
aF8.70409947
aF8.45466104
aF8.45466104
asVBTC-SPHR
p429
(lp430
F1.05278577
aF1.05278577
aF1.05278577
aF1.05278577
aF1.05278577
aF1.05278577
aF1.03444979
aF1.03815211
aF1.03815211
aF1.03760212
aF1.03760212
aF1.03708497
aF1.03708497
aF1.03708497
aF1.03708497
aF1.03708497
aF1.07554437
aF1.07554437
aF1.07554437
aF1.07554437
aF1.07554437
aF1.07554437
aF1.07554437
aF1.0794435
aF1.09480564
aF1.09480564
aF1.08117816
aF1.08117816
asVBTC-PAY
p431
(lp432
F384.99691508
aF384.65131156
aF385.7291182
aF385.47900654
aF384.52533297
aF382.00638305
aF381.67448189
aF380.3529718
aF380.02729753
aF381.15838618
aF380.02290501
aF370.76336557
aF364.38073529
aF361.46651159
aF359.30104004
aF357.76792705
aF353.84021549
aF352.11158429
aF352.78674637
aF353.52715386
aF359.34622848
aF355.99587762
aF356.08957137
aF356.47202536
aF352.97807129
aF351.90412022
aF355.40291842
aF355.11984962
asVBTC-FTC
p433
(lp434
F24.62074859
aF24.85528032
aF25.06257718
aF25.06623208
aF25.02603477
aF25.39699772
aF26.0136418
aF26.19324192
aF26.60656644
aF28.4249775
aF28.47575064
aF28.47737785
aF28.34082366
aF27.63537769
aF27.62743081
aF27.63337772
aF27.79806333
aF27.85930913
aF28.15986942
aF28.6195982
aF28.61364819
aF28.6702999
aF30.3719938
aF30.37790209
aF30.63621272
aF30.68731795
aF30.33922796
aF30.19529187
asVBTC-VRM
p435
(lp436
F6.63201668
aF6.61276068
aF6.61276068
aF6.61776067
aF6.61776067
aF6.59376892
aF6.59139037
aF6.59139037
aF6.48135203
aF6.48135203
aF6.38293852
aF6.38293852
aF6.39429857
aF6.39487256
aF6.39487256
aF6.22089528
aF6.17712252
aF6.17764176
aF6.17764176
aF6.17710334
aF6.17187051
aF6.16080761
aF6.16080761
aF6.1641692
aF6.1641692
aF6.1641692
aF6.16840946
aF6.16840946
asVBTC-BITB
p437
(lp438
F17.51456171
aF17.55936646
aF17.57259318
aF17.56038937
aF17.64166118
aF17.63502878
aF18.49863224
aF18.30963769
aF18.3389182
aF18.3389182
aF18.344218
aF18.3707783
aF18.24664838
aF18.25409594
aF18.25409594
aF18.15911674
aF18.1828432
aF18.21136024
aF18.21136024
aF18.24451024
aF18.24451024
aF18.22940244
aF18.18625964
aF18.18077531
aF18.26947929
aF18.25199065
aF18.25102172
aF18.25102172
asVBTC-BTS
p439
(lp440
F1039.88922077
aF1039.66405931
aF1039.44235624
aF1042.53100718
aF1040.61390966
aF1036.65032802
aF1027.50598909
aF1025.672858
aF1029.96960677
aF1026.41883219
aF1027.31450259
aF1028.43135061
aF1029.0832714
aF1031.78277658
aF1031.53357862
aF1039.69529645
aF1040.86221734
aF1041.4569184
aF1030.55832627
aF1032.05447985
aF1026.83423926
aF1025.64148689
aF1018.6028718
aF1017.13952527
aF1010.68962521
aF1010.99494558
aF1009.24692286
aF1009.2736068
asVETH-ZEC
p441
(lp442
F270.17180372
aF270.17180372
aF270.12696334
aF270.7020728
aF271.09109505
aF271.09109505
aF271.09109505
aF271.10110327
aF273.76029046
aF275.28114222
aF290.40278775
aF290.20146455
aF290.19945939
aF289.24491346
aF289.24491346
aF289.24491346
aF288.88173154
aF287.74296257
aF287.6904187
aF287.6904187
aF278.68404109
aF278.68404109
aF305.86075204
aF306.08349997
aF343.40574744
aF409.03679073
aF452.14805189
aF452.01208615
asVETH-BNT
p443
(lp444
F240.33158409
aF240.33158409
aF239.77970404
aF239.77970404
aF239.95194955
aF239.95194955
aF239.57541136
aF239.10027905
aF239.10027905
aF282.14672994
aF282.14672994
aF282.14672994
aF282.14672994
aF282.14672994
aF282.14672994
aF280.46631775
aF280.46631775
aF280.33235359
aF280.33235359
aF280.33235359
aF280.33235359
aF221.44987138
aF219.31396356
aF219.31396356
aF219.31396356
aF219.77081301
aF219.77081301
aF219.77081301
asVBTC-XST
p445
(lp446
F8.51846955
aF8.51846955
aF8.5672066
aF8.5672066
aF8.58098225
aF8.56821159
aF8.581506
aF8.61297563
aF8.61397312
aF8.6411242
aF8.24376363
aF8.26815473
aF8.35809642
aF8.35444915
aF8.35487386
aF8.3818701
aF8.53569469
aF8.58387538
aF9.59859387
aF9.58399688
aF9.73180257
aF9.73180257
aF9.66009764
aF9.60368532
aF9.87068333
aF9.89345514
aF9.93911342
aF9.93911342
asVBTC-BCC
p447
(lp448
F1034.00729133
aF1045.70975465
aF1045.79509578
aF1045.14726306
aF1046.18671737
aF1051.11103897
aF1057.59923731
aF1060.85740832
aF1059.37842107
aF1063.49129684
aF1049.2962999
aF1024.48457479
aF1003.59576249
aF951.66840685
aF937.92945658
aF913.93341328
aF912.57624235
aF912.89344527
aF903.71729568
aF899.55580026
aF894.10132829
aF903.68171295
aF901.10954132
aF907.52702232
aF906.34194201
aF894.32829259
aF898.64886595
aF899.15739729
asVBTC-REP
p449
(lp450
F250.73609222
aF250.47459945
aF249.48208128
aF249.42556766
aF249.51534265
aF249.37444008
aF249.83520456
aF249.85580509
aF249.75777928
aF250.00287107
aF250.03095581
aF249.97532314
aF249.9924644
aF249.97658635
aF249.99841754
aF249.85691875
aF249.85924834
aF249.85924834
aF250.04996994
aF250.18111787
aF250.86992585
aF250.86992585
aF251.05388856
aF251.16919152
aF250.33212229
aF250.33212229
aF251.19657688
aF253.16015349
asVBTC-BTCD
p451
(lp452
F60.56615407
aF60.51618378
aF62.41948877
aF62.73248031
aF62.75867048
aF62.79657872
aF62.79657872
aF62.79383298
aF62.79168251
aF63.15234306
aF63.15234306
aF63.15234306
aF63.16914818
aF63.16914818
aF63.16066479
aF62.98956554
aF62.98465974
aF62.9851787
aF62.9612841
aF62.38788552
aF62.39980372
aF62.39980372
aF62.12378672
aF62.12301824
aF62.1370772
aF62.1370772
aF62.1370772
aF64.56856523
asVBTC-BTA
p453
(lp454
F15.59727202
aF15.61136502
aF15.61136502
aF15.60800759
aF15.66554697
aF15.61283016
aF15.62776865
aF15.62544839
aF15.62544839
aF15.59180391
aF15.59009429
aF15.60917308
aF15.60917308
aF15.60917308
aF15.60917308
aF15.60917308
aF15.60917308
aF15.60917308
aF15.60917308
aF15.60917308
aF15.60917308
aF15.76037741
aF15.79053163
aF15.79053163
aF15.79453162
aF15.7773467
aF15.77633668
aF15.77633668
asVETH-RLC
p455
(lp456
F12.6732649
aF12.6732649
aF12.7096772
aF12.7096772
aF12.7096772
aF14.27909515
aF14.27909515
aF14.31653588
aF14.31653588
aF14.31653588
aF14.31653588
aF14.19894918
aF14.19894918
aF14.19894918
aF14.19894918
aF14.19894918
aF14.19894918
aF14.19894918
aF14.19894918
aF14.19894918
aF14.19894918
aF14.19809116
aF14.19809116
aF6.68770969
aF6.6727097
aF6.6727097
aF8.55265913
aF8.58631674
asVBTC-CRB
p457
(lp458
F8.43954166
aF8.43854416
aF8.44645092
aF8.35375858
aF8.35375858
aF8.35716047
aF8.35716047
aF8.26733647
aF8.35721346
aF8.34338357
aF8.34338357
aF8.33398628
aF7.95430655
aF8.06054174
aF8.06347922
aF7.96619702
aF7.96619702
aF7.93094539
aF7.93264538
aF7.9229099
aF7.9229099
aF7.9229099
aF7.96448833
aF7.96448833
aF7.96448833
aF7.87834371
aF7.92460771
aF8.0481863
asVBTC-RLC
p459
(lp460
F15.5689896
aF15.52588178
aF15.53090582
aF15.53090582
aF15.30037757
aF15.41326635
aF15.27622223
aF15.28478975
aF15.18953376
aF15.16368556
aF15.16368556
aF15.16368556
aF15.16368556
aF15.15484831
aF15.38381472
aF15.39188611
aF15.27939683
aF15.35321887
aF15.35820637
aF15.33176283
aF15.37695058
aF15.35272035
aF15.27480687
aF14.80211611
aF14.80211611
aF14.86433219
aF15.08478034
aF15.63629833
asVBTC-ERC
p461
(lp462
F9.12155153
aF9.08951855
aF9.11429047
aF9.11429047
aF9.01887886
aF9.01410626
aF8.97940634
aF8.75016703
aF8.77395682
aF8.76339725
aF8.78130978
aF8.77133478
aF8.78164494
aF8.8096621
aF9.42687674
aF9.5478269
aF9.55212561
aF9.55212561
aF9.00958623
aF9.00666644
aF9.00666644
aF8.9100381
aF8.9100381
aF8.93825035
aF8.80582202
aF8.9013543
aF8.92054014
aF8.93172375
asVBTC-BRK
p463
(lp464
F4.33845217
aF4.4481422
aF4.4535784
aF4.5765094
aF4.63597441
aF4.6365231
aF4.63156237
aF4.63225025
aF4.6433183
aF4.66258442
aF5.06484094
aF5.1007093
aF5.1007093
aF5.1007093
aF5.10499872
aF5.10499872
aF5.12148383
aF5.12148383
aF5.12753451
aF5.11792547
aF5.11792547
aF5.11792547
aF5.11792547
aF5.11693558
aF5.1624705
aF5.2536971
aF5.2536971
aF5.2536971
asVBTC-NAV
p465
(lp466
F257.63916458
aF258.00762822
aF257.26347275
aF257.22557808
aF257.49023259
aF258.15934162
aF250.74293154
aF250.01636426
aF250.42779734
aF250.43640048
aF249.54544655
aF249.67721276
aF249.96753121
aF250.06769582
aF250.21016278
aF249.1477931
aF248.88651742
aF247.07208785
aF237.64654642
aF238.69853771
aF237.88500532
aF236.6435065
aF235.56182454
aF236.78613319
aF238.53482226
aF239.34933968
aF246.29725774
aF246.94298639
asVBTC-PKB
p467
(lp468
F6.93567082
aF6.93567082
aF6.52410905
aF6.39908034
aF6.39908034
aF6.40943784
aF6.43644668
aF6.43894667
aF6.43894667
aF6.5329673
aF6.5329673
aF6.5329673
aF6.51894497
aF6.51842599
aF6.53057297
aF6.53057297
aF6.46534657
aF6.46534657
aF6.47248469
aF6.50360668
aF6.52274842
aF6.52274842
aF6.57445306
aF6.5991643
aF6.61819064
aF6.6255216
aF6.64726343
aF6.64726343
asVBTC-TRIG
p469
(lp470
F1145.11277795
aF1159.75249631
aF1184.9838877
aF1232.31391994
aF1259.29558342
aF1280.87649401
aF1270.88702915
aF1273.62523192
aF1288.13066948
aF1290.73123799
aF1285.05201703
aF1286.1330661
aF1294.25431192
aF1301.77401849
aF1272.77407683
aF1265.17286914
aF1261.76191447
aF1264.66726006
aF1272.42701645
aF1277.05805466
aF1280.16436329
aF1286.02988716
aF1286.89299403
aF1300.33107314
aF1307.03409423
aF1317.11664844
aF1319.57017491
aF1319.87303362
asVETH-REP
p471
(lp472
F447.51336045
aF447.51336045
aF447.51336045
aF447.51336045
aF447.51336045
aF447.51336045
aF447.53675285
aF447.53675285
aF447.53675285
aF447.53675285
aF447.60459223
aF447.60459223
aF449.09363279
aF449.09363279
aF449.09363279
aF449.13236496
aF449.27045193
aF449.27045193
aF449.29990591
aF449.29990591
aF449.29990591
aF448.86755877
aF449.56580876
aF449.56580876
aF449.69078167
aF449.69078167
aF449.69078167
aF449.69078167
asVBTC-OMG
p473
(lp474
F2390.35081816
aF2379.85193518
aF2385.64724203
aF2378.1468508
aF2371.91577001
aF2382.24076437
aF2387.54333035
aF2382.41491733
aF2381.13018638
aF2381.914543
aF2364.51614161
aF2360.57994118
aF2371.90606269
aF2369.50250824
aF2376.37330697
aF2373.63122569
aF2361.66063925
aF2370.94688829
aF2371.22245047
aF2376.49226719
aF2375.071278
aF2393.65248859
aF2397.89917539
aF2383.25555293
aF2375.49546849
aF2358.29609352
aF2349.34564447
aF2414.56629047
asVBTC-GBG
p475
(lp476
F4.36933071
aF5.91806603
aF7.72274662
aF10.16438236
aF13.34732989
aF13.7956853
aF14.0378421
aF14.34085055
aF14.54468269
aF16.99536154
aF17.25043821
aF17.37505937
aF17.50352789
aF17.57049745
aF17.58461954
aF17.62277133
aF18.0388193
aF18.10359805
aF18.1123931
aF18.13223142
aF18.29420198
aF18.29420198
aF18.41910032
aF18.61242653
aF18.61437448
aF18.61437448
aF18.71450843
aF18.86135054
asVBTC-XZC
p477
(lp478
F64.34361778
aF64.50175285
aF63.53921038
aF63.12424943
aF63.61422202
aF63.45254042
aF62.88017533
aF64.27786797
aF65.46581077
aF65.69247449
aF66.74687072
aF63.00069536
aF62.97539568
aF62.01154216
aF62.34451364
aF62.0877823
aF61.79726804
aF61.12179434
aF61.12179434
aF61.17922251
aF62.5190117
aF62.54961537
aF62.41775042
aF62.64974231
aF61.97471395
aF61.80993261
aF61.84013314
aF61.33453286
asVBTC-BRX
p479
(lp480
F8.98896278
aF8.98896278
aF8.98694448
aF8.97849575
aF8.99349574
aF9.03149481
aF9.03149481
aF9.01868494
aF8.84323133
aF8.81793826
aF8.81793826
aF8.81793826
aF8.78751599
aF8.78751599
aF8.78751599
aF8.78751599
aF8.8390173
aF8.8390173
aF8.84096909
aF8.8500164
aF8.88772785
aF8.90884651
aF8.90804861
aF8.9120486
aF8.9120486
aF8.90232385
aF8.90172475
aF8.35321073
asVBTC-SYS
p481
(lp482
F207.42520798
aF208.39219142
aF202.13954303
aF199.69830165
aF198.5134014
aF198.43348844
aF199.05252147
aF198.01619867
aF198.56677229
aF206.14617102
aF204.40946425
aF200.09574502
aF197.53343513
aF197.10767548
aF196.90499137
aF197.8166508
aF197.25972194
aF197.87355799
aF197.78750712
aF197.77731023
aF197.30200526
aF196.71836438
aF195.0767614
aF196.75056497
aF195.77221223
aF195.48489244
aF197.18404231
aF198.7739813
asVBTC-CRW
p483
(lp484
F20.23559804
aF20.24877091
aF20.24877091
aF20.24877091
aF20.16388134
aF20.128764
aF20.128764
aF20.128764
aF20.13937056
aF20.13937056
aF20.51527599
aF20.51527599
aF20.51527599
aF20.52525252
aF20.52525252
aF20.52525252
aF20.52525252
aF20.52525252
aF20.52525252
aF20.52525252
aF20.51443599
aF20.51443599
aF20.51443599
aF20.68795465
aF20.68795465
aF20.36887064
aF20.29037493
aF20.29037493
asVUSDT-OMG
p485
(lp486
F2820893.89556457
aF2833420.23571851
aF2806776.18558951
aF2782296.19260196
aF2809614.13673374
aF2808859.45178508
aF2799372.91517989
aF2789969.23272229
aF2748199.89471092
aF2715007.98742138
aF2716469.04788466
aF2716469.04788466
aF2718340.84328807
aF2699450.47952303
aF2659477.87750995
aF2649490.2148996
aF2679645.60252736
aF2680122.80127623
aF2684477.99356843
aF2668739.58571117
aF2671601.67173688
aF2671608.32084348
aF2677454.99500438
aF2651876.28432947
aF2599900.70340719
aF2601125.39145861
aF2620656.82069793
aF2695039.18649917
asVBTC-RDD
p487
(lp488
F42.61865267
aF42.66793342
aF42.66690553
aF42.66956341
aF42.74620936
aF42.9572307
aF42.5819922
aF43.24615801
aF43.13102535
aF43.8482492
aF44.01010193
aF43.99712442
aF43.57914305
aF43.54139385
aF42.91064718
aF42.98771067
aF43.14813372
aF43.1729688
aF43.33080265
aF49.59380467
aF49.71480595
aF50.22440726
aF50.48834514
aF58.02098336
aF58.55010835
aF58.77552076
aF58.83016547
aF66.27433358
asVBTC-GAME
p489
(lp490
F167.08122063
aF166.85051154
aF160.11819399
aF154.05022843
aF150.26737776
aF152.11875384
aF150.94580504
aF148.73063244
aF147.35400349
aF145.67840048
aF142.06767602
aF141.6142386
aF139.66590714
aF136.49684882
aF136.9894726
aF131.75632405
aF130.3941445
aF128.37474954
aF128.22166428
aF128.05044989
aF128.32464078
aF128.26791062
aF127.37890401
aF127.33242333
aF127.21937685
aF121.22360548
aF120.7619407
aF119.86160423
asVETH-GUP
p491
(lp492
F10.38707327
aF10.88627034
aF10.88627034
aF10.88627034
aF10.88627034
aF10.73734254
aF10.73734254
aF10.76505225
aF10.76505225
aF10.76505225
aF10.76505225
aF10.76505225
aF10.76505225
aF10.76505225
aF10.76505225
aF10.79270159
aF10.79270159
aF10.79270159
aF10.79270159
aF10.79270159
aF10.79270159
aF11.13343034
aF11.84072173
aF11.84072173
aF11.84072173
aF11.84072173
aF11.84072173
aF11.84072173
asVBTC-1ST
p493
(lp494
F206.53323787
aF206.76558574
aF210.18043207
aF214.25250901
aF217.12906887
aF222.4999263
aF225.24822865
aF226.64893365
aF226.94078343
aF229.57485458
aF231.32010355
aF232.92402032
aF232.98352976
aF234.19591603
aF234.40478779
aF234.87496166
aF241.51155188
aF242.84311071
aF244.46924375
aF247.38531679
aF250.63354748
aF252.76209286
aF254.87712899
aF266.58109977
aF271.12553621
aF282.33239319
aF285.3313826
aF286.2597298
asVUSDT-ETH
p495
(lp496
F5344039.84854942
aF5320417.94679163
aF5385951.71813057
aF5387131.12173867
aF5390578.96071093
aF5384289.33627281
aF5379707.16903074
aF5403521.90373212
aF5386857.32170887
aF5377395.96218895
aF5311587.23325763
aF5323242.33854775
aF5392984.50001274
aF5471126.22354641
aF5454806.25166342
aF5471538.69610895
aF5500412.31495867
aF5502388.58278909
aF5502072.74944269
aF5515821.84673153
aF5532881.72441654
aF5559353.61672447
aF5567748.71637158
aF5716978.6676081
aF5859754.78295162
aF5955374.55237405
aF6328538.35937122
aF6503885.63081018
asVBTC-VTR
p497
(lp498
F5.86794529
aF5.88531765
aF5.90432572
aF5.91220354
aF5.91100046
aF5.91100046
aF5.88679013
aF5.89259005
aF5.90320715
aF5.90538565
aF5.90483566
aF5.90483566
aF5.90413866
aF5.91687665
aF5.91687665
aF5.92562398
aF5.92562398
aF8.79625979
aF10.73393772
aF11.19935115
aF15.48786164
aF19.97930873
aF23.79320805
aF26.00669134
aF37.02890066
aF38.37695656
aF39.08043469
aF39.58889147
asVBTC-EMC2
p499
(lp500
F631.37766436
aF632.71891701
aF637.04601873
aF641.4833293
aF642.38592823
aF644.35895564
aF647.96427947
aF649.4957953
aF651.15835063
aF658.08607195
aF661.14497333
aF664.61226531
aF676.00556946
aF678.07905516
aF681.74475638
aF683.80656325
aF684.96908895
aF685.97697501
aF687.33774415
aF690.80361198
aF692.44646006
aF699.5600176
aF707.06175754
aF721.08739729
aF726.5436247
aF729.26945481
aF734.58983376
aF746.19047603
asVBTC-XCP
p501
(lp502
F75.2461767
aF76.36908362
aF76.21208694
aF75.63658327
aF75.6523918
aF75.83864098
aF75.892997
aF76.14098787
aF76.2637457
aF76.44944318
aF76.47072875
aF77.00321262
aF76.77100617
aF77.29575747
aF77.29835063
aF77.67837517
aF78.62572274
aF79.01468927
aF79.23985496
aF79.14192445
aF78.75309787
aF78.90308262
aF79.82159293
aF79.8152054
aF83.63804857
aF86.06029723
aF86.10047054
aF87.20933608
asVBTC-SWIFT
p503
(lp504
F3.30114428
aF3.31386078
aF3.31718455
aF3.32019616
aF3.33970905
aF3.55906942
aF3.68771765
aF3.74414954
aF3.77227323
aF3.77255814
aF3.77232429
aF3.76751455
aF3.77170584
aF3.72155353
aF3.72767937
aF3.72962872
aF3.85686838
aF3.95112556
aF3.95112556
aF3.94408727
aF4.08068873
aF4.08068873
aF4.03081374
aF4.03416133
aF4.1402945
aF4.34555786
aF4.34555786
aF4.14644166
asVBTC-THC
p505
(lp506
F44.60021687
aF42.97034173
aF41.57788084
aF40.32771899
aF39.51404004
aF39.62925167
aF37.61290865
aF36.96603813
aF36.28514838
aF35.56185289
aF35.76536622
aF35.88283341
aF35.32123945
aF35.42495645
aF35.44548767
aF35.2217861
aF35.21035216
aF35.37484265
aF35.48448804
aF35.63914609
aF35.63327946
aF34.67628169
aF32.82814612
aF32.75651401
aF32.8042981
aF32.82354191
aF32.92948499
aF33.13248847
asVETH-STRAT
p507
(lp508
F369.28825245
aF368.44696256
aF368.44696256
aF311.70902433
aF307.60648877
aF304.3952886
aF304.5675214
aF276.29974355
aF276.29974355
aF276.29974355
aF260.71461421
aF260.71461421
aF250.25921103
aF252.32941634
aF256.88555878
aF244.65710847
aF244.65710847
aF244.77524985
aF244.77524985
aF244.77524985
aF244.77524985
aF248.55247133
aF248.01795325
aF250.022082
aF253.3611738
aF265.05226643
aF269.56817948
aF289.05930238
asVBTC-VTC
p509
(lp510
F261.03349634
aF261.13456967
aF262.2790965
aF263.06216283
aF259.40625543
aF258.58741911
aF258.58139707
aF257.76499262
aF255.93094532
aF251.92497338
aF251.72146966
aF250.42543215
aF250.24052075
aF250.0239087
aF288.00334994
aF296.79965449
aF298.03387101
aF298.1111299
aF297.84784485
aF297.76395059
aF298.95304215
aF299.71321886
aF300.27839798
aF300.32052884
aF300.55262731
aF301.87502908
aF301.80634848
aF303.45167016
asVBTC-VRC
p511
(lp512
F52.72537233
aF53.65126542
aF53.75955542
aF55.43982447
aF55.51123761
aF55.96107618
aF56.46841585
aF56.28725471
aF56.52913282
aF56.56681275
aF56.61829808
aF56.70070957
aF56.70455646
aF56.9277682
aF56.69461698
aF56.61189036
aF56.66993758
aF56.77378059
aF56.23533059
aF55.16724663
aF55.40585432
aF56.07368709
aF56.64749644
aF56.71206342
aF56.71206342
aF56.73501864
aF56.75425064
aF56.79432037
asVBTC-ZCL
p513
(lp514
F11.56075436
aF11.55794908
aF11.65906695
aF11.63688222
aF11.85851289
aF11.86350038
aF11.81113864
aF11.86085396
aF11.85602592
aF11.87624913
aF11.87093502
aF11.51594394
aF12.15757753
aF12.59754633
aF12.70101654
aF12.65353409
aF12.65353409
aF12.61611981
aF12.51507321
aF12.59730182
aF12.69097431
aF12.77218416
aF12.69515109
aF12.75295845
aF12.80439441
aF13.01976703
aF13.09691281
aF13.16824628
asVBTC-XRP
p515
(lp516
F738.98050116
aF742.71397512
aF742.65854199
aF741.90742806
aF744.27752616
aF741.25804824
aF741.90315813
aF740.41970243
aF734.72996291
aF729.50923413
aF727.19254529
aF725.94024253
aF722.89762165
aF724.57563381
aF726.42697126
aF726.10681646
aF714.03792988
aF713.34071732
aF717.78391043
aF726.04946229
aF724.30282495
aF721.75331765
aF719.54658517
aF715.51344546
aF714.07427539
aF702.72085833
aF707.88398787
aF716.03560359
as.