(lp0
I1504734701
aI1504735311
aI1504735922
aI1504736535
aI1504737150
aI1504737767
aI1504738385
aI1504739004
aI1504739626
aI1504740251
aI1504740878
aI1504741505
aI1504742136
aI1504742768
aI1504743400
aI1504744035
aI1504744669
aI1504745305
aI1504745943
aI1504746581
aI1504747221
aI1504747868
aI1504748513
aI1504749161
aI1504749807
aI1504750455
aI1504751104
aI1504751758
aI1504752412
aI1504753066
aI1504753722
aI1504754379
aI1504755038
aI1504755698
aI1504756361
aI1504757024
aI1504757688
aI1504758355
aI1504759023
aI1504759691
aI1504760361
aI1504761033
aI1504761707
aI1504762383
aI1504763061
aI1504763740
aI1504764421
aI1504765103
aI1504765785
aI1504766468
aI1504767152
aI1504767838
aI1504768527
aI1504769216
aI1504769906
aI1504770599
aI1504771292
aI1504771987
aI1504772684
aI1504773381
aI1504774082
aI1504774785
aI1504775489
aI1504776193
aI1504776900
aI1504777609
aI1504778321
aI1504779030
aI1504779741
aI1504780458
aI1504781181
aI1504781898
aI1504782617
aI1504783337
aI1504784058
aI1504784780
aI1504785504
aI1504786229
aI1504786955
aI1504787683
aI1504788414
aI1504789146
aI1504789880
aI1504790615
aI1504791351
aI1504792088
aI1504792826
aI1504793566
aI1504794307
aI1504795049
aI1504795794
aI1504796540
aI1504797287
aI1504798037
aI1504798788
aI1504799542
aI1504800296
aI1504801052
aI1504801811
aI1504802572
aI1504803334
aI1504804096
aI1504804861
aI1504805625
aI1504806392
aI1504807162
aI1504807930
aI1504808702
aI1504809475
aI1504810250
aI1504811024
aI1504811801
aI1504812578
aI1504813358
aI1504814141
aI1504814923
aI1504815708
aI1504816493
aI1504817280
aI1504818070
aI1504818862
aI1504819652
aI1504820449
aI1504821246
aI1504822042
aI1504822841
aI1504823638
aI1504824440
aI1504825247
aI1504826058
aI1504826868
aI1504827676
aI1504828486
aI1504829311
aI1504830122
aI1504830935
aI1504831751
aI1504832570
aI1504833388
aI1504834208
aI1504835031
aI1504835853
aI1504836677
aI1504837504
aI1504838331
a.