(lp0
I1504963820
aI1504964430
aI1504965043
aI1504965658
aI1504966274
aI1504966890
aI1504967507
aI1504968127
aI1504968747
aI1504969370
aI1504969994
aI1504970620
aI1504971250
aI1504971884
aI1504972516
aI1504973148
aI1504973787
aI1504974424
aI1504975061
aI1504975699
aI1504976339
aI1504976980
aI1504977622
aI1504978265
aI1504978910
aI1504979558
aI1504980207
aI1504980857
aI1504981509
aI1504982163
aI1504982818
aI1504983474
aI1504984132
aI1504984790
aI1504985451
aI1504986114
aI1504986778
aI1504987443
a.