(lp0
I1503634971
aI1503635582
aI1503636196
aI1503636811
aI1503637433
aI1503638050
aI1503638671
aI1503639292
aI1503639916
aI1503640542
aI1503641168
aI1503641796
aI1503642426
aI1503643057
aI1503643689
aI1503644323
aI1503644959
aI1503645597
aI1503646235
aI1503646876
aI1503647517
aI1503648160
aI1503648804
aI1503649451
aI1503650101
aI1503650751
aI1503651404
aI1503652057
aI1503652713
aI1503653368
aI1503654023
aI1503654681
aI1503655341
aI1503656003
aI1503656667
aI1503657333
aI1503658000
aI1503658669
aI1503659339
aI1503660010
aI1503660683
aI1503661358
aI1503662033
aI1503662710
aI1503663389
aI1503664068
aI1503664750
aI1503665433
aI1503666119
aI1503666807
aI1503667496
aI1503668185
aI1503668877
aI1503669569
aI1503670265
aI1503670962
aI1503671660
aI1503672357
aI1503673059
aI1503673763
aI1503674468
aI1503675174
aI1503675884
aI1503676596
aI1503677306
aI1503678019
aI1503678734
aI1503679453
aI1503680172
aI1503680893
aI1503681615
aI1503682338
aI1503683063
aI1503683789
aI1503684517
aI1503685243
aI1503685972
aI1503686702
aI1503687434
aI1503688166
aI1503688901
aI1503689636
aI1503690374
aI1503691113
aI1503691854
aI1503692596
aI1503693338
aI1503694085
aI1503694833
aI1503695581
aI1503696330
aI1503697082
aI1503697833
aI1503698587
aI1503699343
aI1503700102
aI1503700862
aI1503701624
aI1503702388
aI1503703151
aI1503703918
aI1503704684
aI1503705453
aI1503706229
aI1503707001
aI1503707774
aI1503708550
aI1503709326
aI1503710104
aI1503710883
aI1503711664
aI1503712446
aI1503713231
aI1503714017
aI1503714810
aI1503715599
aI1503716389
aI1503717181
aI1503717975
aI1503718773
aI1503719569
aI1503720368
aI1503721170
a.