(lp0
I1505432047
aI1505432656
aI1505433268
aI1505433881
aI1505434496
aI1505435113
aI1505435730
aI1505436349
aI1505436970
aI1505437596
aI1505438220
aI1505438847
aI1505439475
aI1505440104
aI1505440735
aI1505441367
aI1505442005
aI1505442641
aI1505443278
aI1505443916
aI1505444556
aI1505445197
aI1505445839
a.