(lp0
I1505067271
aI1505067881
aI1505068491
aI1505069105
aI1505069719
aI1505070338
aI1505070955
aI1505071575
aI1505072196
aI1505072819
aI1505073442
aI1505074068
aI1505074695
aI1505075324
aI1505075954
aI1505076586
aI1505077222
aI1505077858
aI1505078494
aI1505079132
aI1505079771
aI1505080412
aI1505081053
aI1505081696
aI1505082341
aI1505082989
aI1505083637
aI1505084288
aI1505084940
aI1505085592
aI1505086246
aI1505086901
aI1505087558
aI1505088217
aI1505088879
aI1505089542
aI1505090206
aI1505090872
aI1505091539
aI1505092207
aI1505092876
aI1505093547
aI1505094220
a.