(lp0
I1503721724
aI1503722335
aI1503722947
aI1503723560
aI1503724175
aI1503724791
aI1503725409
aI1503726030
aI1503726651
aI1503727274
aI1503727899
aI1503728525
aI1503729153
aI1503729783
aI1503730414
aI1503731047
aI1503731684
aI1503732320
aI1503732958
aI1503733597
aI1503734238
aI1503734879
aI1503735523
aI1503736167
aI1503736814
aI1503737463
aI1503738114
aI1503738767
aI1503739419
aI1503740073
aI1503740728
aI1503741385
aI1503742043
aI1503742704
aI1503743367
aI1503744030
aI1503744697
aI1503745363
aI1503746031
aI1503746700
aI1503747372
aI1503748044
aI1503748718
aI1503749395
aI1503750072
aI1503750751
aI1503751432
aI1503752113
aI1503752797
aI1503753481
aI1503754167
aI1503754855
aI1503755545
aI1503756238
aI1503756931
aI1503757625
aI1503758321
aI1503759018
aI1503759716
aI1503760418
aI1503761123
aI1503761828
aI1503762537
aI1503763247
aI1503763958
aI1503764669
aI1503765380
aI1503766092
aI1503766807
aI1503767525
aI1503768243
aI1503768965
aI1503769686
aI1503770408
aI1503771133
aI1503771858
aI1503772585
aI1503773314
aI1503774045
aI1503774776
aI1503775509
aI1503776244
aI1503776980
aI1503777717
aI1503778457
aI1503779197
aI1503779941
aI1503780684
aI1503781430
aI1503782177
aI1503782928
aI1503783678
aI1503784430
aI1503785184
aI1503785940
aI1503786697
aI1503787455
aI1503788215
aI1503788977
aI1503789741
aI1503790512
aI1503791280
aI1503792051
aI1503792826
aI1503793601
aI1503794374
aI1503795150
aI1503795924
aI1503796701
aI1503797479
aI1503798258
aI1503799040
aI1503799823
aI1503800608
aI1503801393
a.