(lp0
I1504538232
aI1504538847
aI1504539460
aI1504540078
aI1504540693
aI1504541311
aI1504541928
aI1504542548
aI1504543169
aI1504543792
aI1504544417
aI1504545043
aI1504545670
aI1504546300
aI1504546931
aI1504547563
aI1504548198
aI1504548834
aI1504549471
aI1504550109
aI1504550749
aI1504551390
aI1504552033
aI1504552677
aI1504553323
aI1504553972
aI1504554622
aI1504555273
aI1504555926
aI1504556581
aI1504557236
aI1504557893
aI1504558551
aI1504559212
aI1504559875
aI1504560539
aI1504561204
aI1504561870
aI1504562538
aI1504563207
aI1504563878
aI1504564555
aI1504565229
aI1504565904
aI1504566581
aI1504567261
aI1504567962
aI1504568666
aI1504569371
aI1504570075
aI1504570777
aI1504571478
aI1504572171
aI1504572863
aI1504573560
aI1504574255
aI1504574951
aI1504575648
aI1504576347
a.