(dp0
VETH-WINGS
p1
(lp2
F86.82442213
asVBTC-DYN
p3
(lp4
F1.12653506
aF1.13795539
asVBTC-OK
p5
(lp6
F693.65742548
asVBTC-SEQ
p7
(lp8
F2.66718095
asVBTC-ABY
p9
(lp10
F13.0249282
aF13.01289189
asVUSDT-BTC
p11
(lp12
F27187192.34157718
asVBTC-TX
p13
(lp14
F8.97765643
asVBTC-NMR
p15
(lp16
F48.51833366
asVETH-ADT
p17
(lp18
F114.35216785
asVETH-NEO
p19
(lp20
F21007.60723053
asVBTC-TRUST
p21
(lp22
F7.19463497
asVETH-WAVES
p23
(lp24
F310.18812227
asVETH-DGB
p25
(lp26
F217.5110493
asVETH-STORJ
p27
(lp28
F489.01431822
asVETH-DGD
p29
(lp30
F79.06658675
asVBTC-GOLOS
p31
(lp32
F2.53950783
aF2.53950783
asVBTC-DAR
p33
(lp34
F6.41167751
aF6.41167751
asVBTC-VOX
p35
(lp36
F39.48548233
asVBTC-XWC
p37
(lp38
F421.14059736
asVBTC-SYNX
p39
(lp40
F51.1622914
asVBTC-MLN
p41
(lp42
F10.80956261
asVBTC-NXC
p43
(lp44
F8.51278735
asVBTC-WAVES
p45
(lp46
F376.99471746
asVBTC-EGC
p47
(lp48
F2.8213886
aF2.81185109
asVBTC-CVC
p49
(lp50
F531.50315419
aF532.69632197
asVBTC-ETC
p51
(lp52
F452.53597739
aF454.02747666
asVBTC-STRAT
p53
(lp54
F924.45721156
asVBTC-IOP
p55
(lp56
F11.49234047
asVBTC-ETH
p57
(lp58
F5015.00907155
aF5021.67656573
asVBTC-CPC
p59
(lp60
F29.79367336
aF29.79367336
asVBTC-CLOAK
p61
(lp62
F108.43675221
aF108.1879726
asVBTC-CLAM
p63
(lp64
F7.75480157
aF7.75480157
asVBTC-SNT
p65
(lp66
F704.54783767
asVBTC-TRST
p67
(lp68
F40.880971
asVETH-SNT
p69
(lp70
F859.05928363
asVETH-XEM
p71
(lp72
F93.08593103
asVBTC-SBD
p73
(lp74
F13.89550587
asVBTC-CANN
p75
(lp76
F14.69162583
aF14.96848647
asVBTC-SWT
p77
(lp78
F10.8033835
asVBTC-BLK
p79
(lp80
F21.67652589
aF21.71074796
asVBTC-UNO
p81
(lp82
F3.23990601
asVETH-OMG
p83
(lp84
F27078.42798
asVBTC-DASH
p85
(lp86
F324.6206149
aF323.00496375
asVETH-QTUM
p87
(lp88
F11372.35953354
asVBTC-FUN
p89
(lp90
F165.86069329
aF165.05162963
asVBTC-MAID
p91
(lp92
F94.64560538
asVBTC-ZEN
p93
(lp94
F55.80465836
asVBTC-AEON
p95
(lp96
F6.91819125
aF6.93935891
asVBTC-NEO
p97
(lp98
F25971.55157095
asVETH-MCO
p99
(lp100
F1468.57844285
asVBTC-MONA
p101
(lp102
F78.88334525
asVETH-XLM
p103
(lp104
F14.48505066
asVBTC-EDG
p105
(lp106
F178.20041629
aF179.60757916
asVETH-TIME
p107
(lp108
F10.41491455
asVBTC-EBST
p109
(lp110
F24.83176613
aF24.95548717
asVBTC-START
p111
(lp112
F2.58486868
asVBTC-FLO
p113
(lp114
F15.04105594
aF14.03736905
asVBTC-MYST
p115
(lp116
F81.64057676
asVBTC-MCO
p117
(lp118
F1356.96113556
asVBTC-WINGS
p119
(lp120
F121.79764031
asVBTC-XMY
p121
(lp122
F9.53065385
asVBTC-MTL
p123
(lp124
F2791.20669472
asVETH-TRST
p125
(lp126
F84.87009449
asVBTC-PDC
p127
(lp128
F518.76913004
asVETH-CVC
p129
(lp130
F812.96585811
asVETH-XMR
p131
(lp132
F417.27731381
asVBTC-PPC
p133
(lp134
F38.390318
asVETH-LTC
p135
(lp136
F1655.70032126
asVUSDT-LTC
p137
(lp138
F2256978.23828842
asVBTC-ADT
p139
(lp140
F18.53592435
aF18.53592435
asVBTC-LUN
p141
(lp142
F56.59315062
asVBTC-DGB
p143
(lp144
F904.94166224
aF904.26484616
asVETH-ETC
p145
(lp146
F380.95980348
asVBTC-RISE
p147
(lp148
F514.6203403
asVETH-PTOY
p149
(lp150
F45.09547735
asVBTC-ADX
p151
(lp152
F889.2932458
aF880.30531064
asVBTC-VIA
p153
(lp154
F65.905525
asVBTC-PINK
p155
(lp156
F35.89463059
asVBTC-PIVX
p157
(lp158
F334.21209063
asVETH-GNT
p159
(lp160
F5022.69674375
asVBTC-DTB
p161
(lp162
F9.84638963
aF9.79517201
asVBTC-NXS
p163
(lp164
F190.06746879
asVBTC-AGRS
p165
(lp166
F2.25583471
aF2.25583471
asVBTC-GEO
p167
(lp168
F11.83121028
aF11.83550288
asVBTC-SHIFT
p169
(lp170
F60.803364
asVBTC-SC
p171
(lp172
F309.34824322
asVBTC-TIME
p173
(lp174
F22.34096886
asVBTC-CLUB
p175
(lp176
F5.55781593
aF5.55781593
asVETH-CFI
p177
(lp178
F124.42339217
asVBTC-AUR
p179
(lp180
F11.52816062
aF11.53316061
asVBTC-EXP
p181
(lp182
F101.50340675
aF102.72228998
asVBTC-NXT
p183
(lp184
F448.42579262
asVBTC-XLM
p185
(lp186
F156.30752617
asVETH-GNO
p187
(lp188
F49.56724459
asVBTC-DOPE
p189
(lp190
F2.4824178
aF2.4824178
asVETH-HMQ
p191
(lp192
F68.76225251
asVBTC-POT
p193
(lp194
F18.71042841
asVBTC-BNT
p195
(lp196
F161.91906729
aF162.13266552
asVETH-ADX
p197
(lp198
F952.28464976
asVBTC-ARK
p199
(lp200
F579.93277043
aF577.43815765
asVBTC-DRACO
p201
(lp202
F6.04220058
aF6.01139475
asVBTC-ZEC
p203
(lp204
F412.99004466
asVBTC-MUE
p205
(lp206
F27.56215655
asVBTC-AMP
p207
(lp208
F40.17844099
aF40.14836329
asVBTC-SAFEX
p209
(lp210
F114.92910294
asVBTC-OMNI
p211
(lp212
F104.06139364
asVBTC-PTC
p213
(lp214
F106.54933484
asVBTC-LGD
p215
(lp216
F69.8166748
asVBTC-ARDR
p217
(lp218
F353.53062728
aF362.62861405
asVBTC-SNGLS
p219
(lp220
F43.36267826
asVBTC-SLR
p221
(lp222
F3.54419601
asVBTC-SLS
p223
(lp224
F2.59559441
asVETH-1ST
p225
(lp226
F97.67855613
asVETH-PAY
p227
(lp228
F3573.77297034
asVETH-BAT
p229
(lp230
F743.75550329
asVBTC-GNT
p231
(lp232
F5725.68119516
aF5686.02894054
asVBTC-GUP
p233
(lp234
F36.37167555
aF37.67464297
asVETH-SC
p235
(lp236
F131.8116581
asVBTC-UNB
p237
(lp238
F10.50858644
asVBTC-COVAL
p239
(lp240
F22.973881
aF23.02842752
asVBTC-ENRG
p241
(lp242
F29.90872646
aF29.91112686
asVETH-FUN
p243
(lp244
F387.22349385
asVETH-BCC
p245
(lp246
F3780.9122098
asVBTC-XVC
p247
(lp248
F23.39048183
asVBTC-RADS
p249
(lp250
F74.16459359
asVBTC-XVG
p251
(lp252
F1142.16267143
asVETH-LGD
p253
(lp254
F55.48943803
asVBTC-EFL
p255
(lp256
F6.73140303
aF6.73140303
asVETH-SNGLS
p257
(lp258
F180.45456161
asVBTC-GNO
p259
(lp260
F29.86336727
aF29.85160898
asVUSDT-ETC
p261
(lp262
F670527.54234759
asVBTC-GCR
p263
(lp264
F6.63427856
aF6.84626911
asVBTC-XEL
p265
(lp266
F211.03390103
asVBTC-XEM
p267
(lp268
F346.6834575
asVBTC-NBT
p269
(lp270
F68.52516824
asVETH-FCT
p271
(lp272
F111.10147713
asVBTC-INFX
p273
(lp274
F22.75047827
asVUSDT-NEO
p275
(lp276
F16932555.97128698
asVBTC-HMQ
p277
(lp278
F77.41845108
asVBTC-SIB
p279
(lp280
F40.61593066
asVBTC-BLOCK
p281
(lp282
F68.78348107
aF68.82058827
asVBTC-FLDC
p283
(lp284
F6.44347452
aF6.39054918
asVBTC-LBC
p285
(lp286
F124.9282192
asVETH-MYST
p287
(lp288
F117.27906058
asVETH-TKN
p289
(lp290
F191.48084003
asVBTC-BAT
p291
(lp292
F470.88256686
aF469.98405854
asVBTC-BURST
p293
(lp294
F87.04045928
aF87.79333544
asVBTC-2GIVE
p295
(lp296
F5.62193673
aF5.62193673
asVBTC-GRC
p297
(lp298
F7.90613715
aF7.95577676
asVBTC-BAY
p299
(lp300
F45.09649839
aF45.74958404
asVBTC-NLG
p301
(lp302
F31.14490828
asVBTC-ANT
p303
(lp304
F92.69836596
aF91.05932042
asVBTC-TKN
p305
(lp306
F161.40191852
asVBTC-DMD
p307
(lp308
F12.6856412
aF12.9487625
asVBTC-TKS
p309
(lp310
F5.05936219
asVBTC-GRS
p311
(lp312
F273.23206876
aF273.82300915
asVUSDT-BCC
p313
(lp314
F5214459.90082285
asVBTC-FCT
p315
(lp316
F240.29175129
aF247.4965611
asVBTC-XDN
p317
(lp318
F23.80297497
asVETH-LUN
p319
(lp320
F106.24497778
asVBTC-QTUM
p321
(lp322
F8613.20619043
asVBTC-DOGE
p323
(lp324
F119.2724925
aF120.2772482
asVBTC-LTC
p325
(lp326
F2302.32020014
asVBTC-LMC
p327
(lp328
F20.75126599
asVBTC-BLITZ
p329
(lp330
F20.04006214
aF20.04006214
asVBTC-GBYTE
p331
(lp332
F261.80376408
aF257.52101486
asVETH-XRP
p333
(lp334
F1239.10933724
asVETH-ANT
p335
(lp336
F172.39212582
asVETH-CRB
p337
(lp338
F46.49108836
asVBTC-STORJ
p339
(lp340
F387.17835192
asVUSDT-XRP
p341
(lp342
F996755.76580368
asVBTC-MEME
p343
(lp344
F15.4502705
asVBTC-CFI
p345
(lp346
F66.6011514
aF66.72800446
asVBTC-XMR
p347
(lp348
F665.39855401
asVBTC-DGD
p349
(lp350
F28.21520636
aF27.99535209
asVBTC-NEOS
p351
(lp352
F43.58512733
asVBTC-QRL
p353
(lp354
F78.03056308
asVBTC-XAUR
p355
(lp356
F26.43356694
asVUSDT-XMR
p357
(lp358
F603472.04123828
asVBTC-BYC
p359
(lp360
F3.09333359
aF3.09333359
asVETH-NMR
p361
(lp362
F78.44743749
asVBTC-STEEM
p363
(lp364
F331.65344204
asVUSDT-ZEC
p365
(lp366
F303741.6585084
asVBTC-IOC
p367
(lp368
F25.51842891
asVBTC-RBY
p369
(lp370
F4.26261058
asVBTC-XMG
p371
(lp372
F14.4729331
asVBTC-MUSIC
p373
(lp374
F61.55019525
asVBTC-UBQ
p375
(lp376
F303.11090648
asVETH-BTS
p377
(lp378
F200.93236472
asVETH-QRL
p379
(lp380
F42.66461744
asVBTC-SNRG
p381
(lp382
F6.64358337
asVBTC-INCNT
p383
(lp384
F25.17980431
asVBTC-GLD
p385
(lp386
F7.47253516
aF7.43443834
asVBTC-ION
p387
(lp388
F8.72132788
asVBTC-KORE
p389
(lp390
F26.57849848
asVBTC-PTOY
p391
(lp392
F83.76557788
asVBTC-SPR
p393
(lp394
F20.3032937
asVBTC-CURE
p395
(lp396
F13.18594415
aF13.18594415
asVBTC-DCR
p397
(lp398
F111.86288664
aF112.40238731
asVBTC-DCT
p399
(lp400
F109.99433428
aF110.9612737
asVBTC-KMD
p401
(lp402
F3907.31143375
asVBTC-BSD
p403
(lp404
F4.49861135
aF6.64908075
asVUSDT-DASH
p405
(lp406
F143055.99822884
asVBTC-FAIR
p407
(lp408
F5.27801712
aF5.27801712
asVETH-DASH
p409
(lp410
F104.53370391
asVBTC-QWARK
p411
(lp412
F219.07884572
asVBTC-EMC
p413
(lp414
F11.14578016
aF11.14578016
asVBTC-LSK
p415
(lp416
F1784.01797093
asVBTC-GAM
p417
(lp418
F3.27930071
aF3.27930071
asVBTC-PART
p419
(lp420
F43.7533858
asVBTC-APX
p421
(lp422
F10.84532519
aF10.84532519
asVETH-MTL
p423
(lp424
F1059.41947272
asVBTC-BCY
p425
(lp426
F24.33669419
aF24.33669419
asVBTC-EXCL
p427
(lp428
F4.24039782
aF4.24102563
asVBTC-SPHR
p429
(lp430
F4.11460464
asVBTC-PAY
p431
(lp432
F2172.90939749
asVBTC-FTC
p433
(lp434
F3.63326174
aF3.6837485
asVBTC-VRM
p435
(lp436
F4.84949075
asVBTC-BITB
p437
(lp438
F22.45590294
aF22.87814984
asVBTC-BTS
p439
(lp440
F624.46570665
aF623.8818226
asVETH-ZEC
p441
(lp442
F364.26775618
asVETH-BNT
p443
(lp444
F436.07743133
asVBTC-XST
p445
(lp446
F4.19472771
asVBTC-BCC
p447
(lp448
F5131.76122417
aF5147.09884071
asVBTC-REP
p449
(lp450
F52.5105258
asVBTC-BTCD
p451
(lp452
F55.99451656
aF56.24098468
asVBTC-BTA
p453
(lp454
F4.96350037
aF4.97096665
asVETH-RLC
p455
(lp456
F21.66027928
asVBTC-CRB
p457
(lp458
F30.19535448
aF30.19535448
asVBTC-RLC
p459
(lp460
F40.77352684
asVBTC-ERC
p461
(lp462
F24.48014901
aF24.38921556
asVBTC-BRK
p463
(lp464
F6.91647653
aF6.89882758
asVBTC-NAV
p465
(lp466
F1239.95615043
asVBTC-PKB
p467
(lp468
F42.60158501
asVBTC-TRIG
p469
(lp470
F1441.57849252
asVETH-REP
p471
(lp472
F32.97133686
asVBTC-OMG
p473
(lp474
F14034.48259306
asVBTC-GBG
p475
(lp476
F3.56657709
aF3.57049939
asVBTC-XZC
p477
(lp478
F93.75357469
asVBTC-BRX
p479
(lp480
F5.14343618
aF5.14749455
asVBTC-SYS
p481
(lp482
F1366.76670783
asVBTC-CRW
p483
(lp484
F9.54068169
aF9.47075821
asVBTC-RDD
p485
(lp486
F195.97126655
asVBTC-GAME
p487
(lp488
F142.14141282
aF142.33781656
asVETH-GUP
p489
(lp490
F42.78927765
asVBTC-1ST
p491
(lp492
F104.86573569
aF104.59817041
asVUSDT-ETH
p493
(lp494
F5368871.2782349
asVBTC-VTR
p495
(lp496
F3.20761591
asVBTC-EMC2
p497
(lp498
F11.05468178
aF11.05891493
asVBTC-XCP
p499
(lp500
F25.65452651
asVBTC-SWIFT
p501
(lp502
F13.60270512
asVBTC-THC
p503
(lp504
F6.38724398
asVETH-STRAT
p505
(lp506
F548.25758601
asVBTC-VTC
p507
(lp508
F190.23650453
asVBTC-VRC
p509
(lp510
F73.72791931
asVBTC-ZCL
p511
(lp512
F13.85718026
asVBTC-XRP
p513
(lp514
F1247.54870261
as.