(dp0
VETH-WINGS
p1
(lp2
F57.53460076
aF61.64876243
aF61.64876243
aF61.64876243
aF61.64876243
aF71.0075304
aF73.34644915
aF84.30461958
aF84.30461958
aF84.30461958
aF84.30461958
aF84.70273555
aF103.84549767
aF118.64922833
aF118.64922833
aF118.64922833
aF118.68585969
aF118.68585969
aF118.68585969
aF118.68585969
aF118.8245053
aF118.8245053
aF120.15383064
aF124.32560852
aF124.32560852
asVBTC-DYN
p3
(lp4
F2.06353873
aF2.07079953
aF2.06683923
aF2.06683923
aF1.76028853
aF1.76028853
aF1.80649016
aF1.80649016
aF1.80649016
aF1.80649016
aF1.80649016
aF1.81053386
aF1.81449959
aF1.81449959
aF1.81449959
aF1.81449959
aF1.84915706
aF1.72154173
aF1.81718689
aF1.84865155
aF1.83395475
aF1.83395475
aF1.80301243
aF1.80403382
aF1.80403382
asVBTC-OK
p5
(lp6
F3283.8443349
aF3380.60846911
aF3453.83976519
aF3488.91056706
aF3618.90530983
aF3858.85338254
aF4104.18692208
aF4441.34630604
aF4611.4512511
aF4713.33704204
aF4787.60007374
aF4836.22413825
aF4923.58963223
aF4983.86964638
aF5011.92919457
aF5044.56223334
aF5112.71742917
aF5314.56919836
aF5427.4604626
aF5490.03510743
aF5585.25849092
aF5697.97610885
aF5748.57843634
aF5798.37983711
aF5867.4244463
asVBTC-SEQ
p7
(lp8
F4.54210806
aF4.54210806
aF4.54210806
aF4.54210806
aF4.54210806
aF4.54210806
aF5.00268643
aF5.03020312
aF5.03020312
aF5.03020312
aF5.03020312
aF5.03020312
aF5.03020312
aF5.03020312
aF5.03020312
aF5.03020312
aF5.03020312
aF4.94783528
aF4.94730033
aF4.94730033
aF4.94799814
aF4.94799814
aF4.98213855
aF5.00725669
aF5.00725669
asVBTC-ABY
p9
(lp10
F10.28745496
aF10.66224938
aF10.79801505
aF10.87530653
aF10.84976936
aF10.87982228
aF10.91934072
aF10.9329585
aF10.97622383
aF11.35316941
aF11.2169535
aF11.05429449
aF11.05429449
aF10.67863896
aF10.61852277
aF10.43284228
aF10.26761412
aF10.10133182
aF10.12778877
aF10.23057914
aF10.36165466
aF10.46615673
aF10.36205727
aF10.35282944
aF10.45701688
asVUSDT-BTC
p11
(lp12
F27368643.09922066
aF27406892.28758347
aF27400975.34357875
aF27440525.12656681
aF27533962.49925213
aF27306509.20229199
aF27257754.83432699
aF27216189.95684454
aF27135205.78774701
aF27236777.6037337
aF27279712.30414429
aF27412489.62589902
aF27388485.86020712
aF27471232.02521998
aF27581199.59761458
aF27621378.18373745
aF27487521.41579118
aF27371300.16533837
aF27015795.87770162
aF26842434.9937748
aF27536039.60874247
aF27856188.07439494
aF27726722.33916774
aF27812937.63566457
aF27943304.01632342
asVBTC-TX
p13
(lp14
F2.5950234
aF2.5950234
aF2.76600326
aF2.76600326
aF2.929418
aF2.91832924
aF2.91832924
aF2.91832924
aF2.91832924
aF2.91576364
aF2.91576364
aF2.91576364
aF2.91576364
aF2.91576364
aF2.91576364
aF2.87333647
aF2.87136783
aF2.88367662
aF2.88367662
aF2.88367662
aF2.9138131
aF2.9138131
aF2.6626963
aF2.78025252
aF2.61938948
asVBTC-NMR
p15
(lp16
F74.28954581
aF74.51268497
aF74.56369655
aF73.26084158
aF73.69222168
aF73.86976072
aF73.81924986
aF73.87021597
aF75.52162105
aF75.59059656
aF74.81964686
aF74.49299411
aF74.55088798
aF73.99498368
aF73.5554134
aF73.22491793
aF72.88384445
aF72.44983232
aF72.24303055
aF72.23014191
aF69.9372481
aF70.39257332
aF70.59090181
aF71.6042421
aF76.11383478
asVETH-ADT
p17
(lp18
F58.96113684
aF58.96113684
aF60.78465299
aF60.78465299
aF60.77536679
aF60.77536679
aF60.77536679
aF60.77536679
aF60.75988479
aF60.75988479
aF60.75988479
aF60.69197286
aF60.69197286
aF60.69197286
aF60.69197286
aF60.37393637
aF60.37393637
aF60.37393637
aF60.37393637
aF60.37393637
aF60.33309984
aF56.50037909
aF55.27218903
aF55.27218903
aF55.27218903
asVETH-NEO
p19
(lp20
F4813.61240141
aF4781.83355562
aF4786.51457661
aF4717.93476018
aF4749.54099869
aF4808.01099631
aF4739.8453457
aF4758.42000692
aF4762.9160334
aF4645.09192537
aF4647.52482582
aF4667.18731637
aF4618.58533034
aF4756.53886722
aF4689.8369712
aF4704.88057563
aF4701.61628321
aF4741.11682592
aF4773.63429672
aF4752.9476672
aF4791.91397134
aF4832.38073597
aF4865.06400093
aF4877.98980877
aF4867.90194141
asVBTC-TRUST
p21
(lp22
F27.69244309
aF27.69244309
aF27.73862297
aF28.39836969
aF28.39836969
aF28.37694286
aF28.37694286
aF28.38707766
aF28.40361838
aF28.40361838
aF28.41312748
aF28.4136944
aF28.41879776
aF28.40835215
aF28.40899174
aF28.52916753
aF28.53947953
aF28.6964602
aF29.07222889
aF29.0668424
aF29.37354926
aF29.74741605
aF29.75870723
aF29.78023843
aF30.01882287
asVETH-WAVES
p23
(lp24
F160.16717202
aF160.16717202
aF150.49622959
aF150.40503644
aF150.40503644
aF150.13533249
aF149.49076996
aF150.3063042
aF150.3063042
aF150.43031972
aF165.96419205
aF166.34534576
aF167.16627417
aF167.30405648
aF167.30405648
aF167.39349962
aF166.5423143
aF166.5423143
aF166.5423143
aF166.5423143
aF169.48290348
aF170.91792001
aF171.60188074
aF171.63267887
aF168.59639096
asVETH-DGB
p25
(lp26
F355.96524045
aF354.98827995
aF355.96439087
aF356.96023968
aF357.661641
aF357.86214099
aF361.21137602
aF364.94363986
aF370.66584085
aF371.89057708
aF371.91066492
aF372.02983681
aF390.92041287
aF398.24685521
aF400.80434518
aF411.94276661
aF411.98915246
aF412.62462207
aF408.85108166
aF408.97085014
aF411.51994304
aF415.88508485
aF458.30028469
aF465.69242246
aF465.99167246
asVETH-STORJ
p27
(lp28
F193.20902976
aF192.62779351
aF191.9118239
aF191.9118239
aF191.70649908
aF193.27798819
aF193.27798819
aF193.27798819
aF194.04995961
aF194.55114471
aF194.5634909
aF194.5634909
aF194.58368117
aF194.58368117
aF194.58368117
aF194.58420982
aF194.8681798
aF194.80689843
aF194.80689843
aF194.279327
aF194.48792886
aF194.58792979
aF194.54249129
aF194.54249129
aF192.60638968
asVETH-DGD
p29
(lp30
F258.95850789
aF258.95850789
aF258.95850789
aF257.76882851
aF336.45556042
aF347.42678451
aF358.35752287
aF358.35752287
aF350.93675781
aF355.54308921
aF356.36720897
aF356.36720897
aF363.1104589
aF363.21180025
aF363.21180025
aF363.21180025
aF363.21180025
aF362.21430026
aF362.20430027
aF362.20430027
aF362.07956379
aF362.10358547
aF362.10358547
aF362.10358547
aF362.10358547
asVBTC-GOLOS
p31
(lp32
F8.21054188
aF8.22962214
aF8.22962214
aF8.22848294
aF8.21166818
aF8.25598011
aF8.25598011
aF8.31682035
aF8.31682035
aF8.31682035
aF5.71312486
aF5.6407637
aF5.6407637
aF5.64051556
aF5.63458902
aF5.63458902
aF5.63367222
aF5.6504883
aF5.6504883
aF5.53412813
aF5.4980721
aF5.47161759
aF5.47161759
aF5.46935228
aF5.46878235
asVBTC-DAR
p33
(lp34
F25.70183775
aF25.82391389
aF26.30295461
aF26.30962127
aF26.26017964
aF28.74509071
aF28.90778278
aF29.06506057
aF29.06506057
aF29.15019819
aF29.36027772
aF29.77556341
aF30.01943243
aF30.30634887
aF30.54310617
aF30.42494192
aF29.85000612
aF29.94529362
aF29.89048325
aF29.88078629
aF29.89985043
aF29.90423883
aF29.90290879
aF29.90290879
aF29.90290879
asVBTC-VOX
p35
(lp36
F13.61565566
aF13.8805686
aF13.88309718
aF13.88309718
aF13.88537016
aF13.88537016
aF13.86874358
aF14.15345952
aF14.21575003
aF14.21529048
aF14.21529048
aF14.17209109
aF14.22427727
aF14.35157727
aF14.27569429
aF14.27569429
aF14.26330777
aF14.27045746
aF14.24133066
aF14.27034112
aF14.22875235
aF14.29518134
aF14.29518134
aF14.15564497
aF14.21767301
asVBTC-XWC
p37
(lp38
F17.91597791
aF17.92272575
aF17.93930057
aF17.93930057
aF17.82652376
aF17.80222723
aF17.79797915
aF18.50986025
aF18.54896902
aF18.6287041
aF18.60699682
aF18.68792677
aF18.7762286
aF18.81923315
aF18.84268418
aF18.84268418
aF17.53807041
aF17.59589117
aF17.64760877
aF17.66774833
aF17.74060925
aF17.84094858
aF17.80365532
aF17.9631484
aF17.9631484
asVBTC-SYNX
p39
(lp40
F10.83395503
aF10.79816347
aF10.78121996
aF10.78121996
aF10.75510086
aF10.75510086
aF10.66349874
aF10.66349874
aF10.37590401
aF10.51953537
aF9.61359886
aF9.51129361
aF9.26297326
aF9.26297326
aF8.5739737
aF8.5739737
aF8.5739737
aF8.51904456
aF8.50651834
aF8.6079408
aF8.38715993
aF8.93324917
aF9.09497791
aF8.79289689
aF8.78870315
asVBTC-MLN
p41
(lp42
F17.33235532
aF17.33235532
aF16.92739138
aF16.49197237
aF16.49197237
aF16.97592493
aF17.47601659
aF17.47554616
aF17.83154898
aF17.0628893
aF17.0713425
aF16.42116139
aF16.39582972
aF16.39582972
aF16.36567072
aF16.36567072
aF16.25234092
aF15.72049804
aF15.7170833
aF15.71903449
aF15.71903449
aF15.68079847
aF15.50558949
aF15.50558949
aF15.52374342
asVBTC-NXC
p43
(lp44
F24.31208578
aF23.8050163
aF23.87392713
aF23.9090324
aF23.90778852
aF23.52673761
aF23.53633759
aF23.58036404
aF23.57859978
aF23.49382974
aF23.50130896
aF22.69272524
aF22.69272524
aF22.4920111
aF22.40868444
aF22.39596011
aF22.41172026
aF22.41172026
aF22.43401386
aF22.32373125
aF22.33343556
aF22.33280954
aF22.36503734
aF22.69267578
aF22.75086199
asVBTC-WAVES
p45
(lp46
F286.74987806
aF288.60219464
aF289.41509303
aF290.29061497
aF288.96847679
aF289.50173077
aF287.49853842
aF291.92484951
aF292.32952231
aF293.19756529
aF293.94063551
aF294.20193669
aF294.02484767
aF293.97831667
aF293.38281675
aF293.76255236
aF294.26549009
aF296.8670576
aF296.94679531
aF296.05659071
aF295.6953344
aF296.12097343
aF297.11859416
aF296.48130641
aF296.23423387
asVBTC-EGC
p47
(lp48
F3.84234706
aF3.84316353
aF3.84316353
aF3.8472602
aF3.84644003
aF3.89731284
aF3.89925867
aF3.90676457
aF3.90741501
aF3.85160843
aF3.93083342
aF3.93083342
aF3.94400742
aF3.94400742
aF3.92674892
aF3.92674892
aF3.92674892
aF3.92674892
aF3.96340044
aF3.96340044
aF3.92045495
aF3.92045495
aF3.85859425
aF4.12024088
aF4.12024088
asVBTC-CVC
p49
(lp50
F1385.63576912
aF1388.90599172
aF1387.85665976
aF1383.20877676
aF1386.38763291
aF1384.45798255
aF1382.00281669
aF1387.74821947
aF1387.16582503
aF1385.80136792
aF1374.20175086
aF1354.70693388
aF1341.10274146
aF1326.7270237
aF1315.32252411
aF1313.19741254
aF1305.46736331
aF1302.13888655
aF1294.56061413
aF1279.01853797
aF1286.18738095
aF1281.09725646
aF1278.21382148
aF1273.34627002
aF1263.34912241
asVBTC-ETC
p51
(lp52
F403.21215061
aF407.55247717
aF410.04742601
aF405.15388673
aF396.75413581
aF393.2611858
aF386.38926283
aF382.51693266
aF383.80100131
aF380.8433055
aF380.60901048
aF379.87935473
aF382.77703155
aF386.16898991
aF385.82860176
aF377.65578726
aF383.45072521
aF381.41280678
aF380.03879179
aF376.14923554
aF372.01578695
aF373.2496555
aF372.8619018
aF371.53326292
aF370.86348449
asVBTC-STRAT
p53
(lp54
F676.92640814
aF685.50171656
aF693.95262012
aF693.29870176
aF697.41857486
aF698.75523844
aF700.5022657
aF702.32101434
aF719.18675757
aF729.97294398
aF719.95605905
aF726.68923107
aF735.97825939
aF732.70103263
aF731.76479033
aF737.30014526
aF746.52071701
aF752.79360391
aF753.4745366
aF756.64821861
aF757.91207606
aF775.78331528
aF776.07124705
aF779.82481822
aF780.31800703
asVBTC-IOP
p55
(lp56
F4.12306164
aF4.12381399
aF4.12381399
aF4.11323786
aF4.11323786
aF4.11501855
aF4.11501855
aF4.11501855
aF4.08309624
aF4.08309624
aF4.10992275
aF4.13219109
aF4.13219109
aF4.13219109
aF4.13219109
aF4.069051
aF4.15374744
aF4.58966893
aF4.55311859
aF4.55593001
aF4.74175298
aF4.7554693
aF4.88804363
aF4.88804363
aF4.88804363
asVBTC-ETH
p57
(lp58
F3054.14598683
aF3056.38071569
aF3058.88124969
aF3056.40512268
aF3056.9556859
aF3053.75429789
aF3064.64491774
aF3065.23083391
aF3064.94653198
aF3060.0299469
aF3054.81620722
aF3048.92027222
aF3054.21649174
aF3063.82736064
aF3050.93418233
aF3050.92066191
aF3061.5886177
aF3063.98058245
aF3051.90850871
aF3030.22903569
aF3061.20283705
aF3122.5373445
aF3153.62986517
aF3174.87507967
aF3180.22719957
asVBTC-CPC
p59
(lp60
F42.19771865
aF42.386684
aF42.425024
aF41.4347428
aF41.40308186
aF40.83664555
aF40.49743379
aF40.52795457
aF40.52795457
aF40.61280684
aF40.9311376
aF41.02201349
aF41.22395155
aF41.3084393
aF43.20970442
aF44.18262837
aF45.45848048
aF45.71099193
aF47.16574878
aF47.13675188
aF47.41074948
aF47.41074948
aF47.34478461
aF48.61159281
aF48.73467542
asVBTC-CLOAK
p61
(lp62
F221.92790389
aF221.1820107
aF217.81317425
aF217.59146632
aF217.23308281
aF216.83869358
aF215.45373643
aF215.75182582
aF216.1442026
aF215.27744527
aF213.99480062
aF214.03077453
aF213.9170931
aF213.87661086
aF213.1177408
aF213.36824406
aF212.95136092
aF210.72012515
aF210.06489695
aF210.17195932
aF206.92809243
aF201.40568091
aF201.28441431
aF200.63752122
aF199.97292104
asVBTC-CLAM
p63
(lp64
F4.51210679
aF4.49697338
aF4.49697338
aF4.41767849
aF4.4254035
aF4.4254035
aF4.4254035
aF4.4254035
aF4.4254035
aF4.4270572
aF4.45666313
aF4.45666313
aF4.45666313
aF4.45666313
aF4.40317066
aF4.40958583
aF4.44025516
aF4.45227578
aF4.63571002
aF4.65835603
aF5.08688546
aF5.09386385
aF5.09386385
aF5.07375814
aF5.17671517
asVBTC-SNT
p65
(lp66
F219.75503885
aF213.22838154
aF213.82606348
aF213.84668924
aF213.59518028
aF215.94097224
aF217.69001598
aF220.62948461
aF220.55552929
aF221.73629665
aF222.24975156
aF222.67569918
aF224.79784355
aF225.20222013
aF225.78200528
aF228.72570824
aF231.66254179
aF231.0700459
aF232.6497475
aF232.97670053
aF236.85711631
aF238.00396536
aF237.78268453
aF238.39667903
aF236.89874841
asVBTC-TRST
p67
(lp68
F34.18781468
aF33.94017421
aF35.01804909
aF35.02875963
aF34.77403366
aF34.83417957
aF34.83417957
aF34.57156481
aF34.70037213
aF34.70037213
aF34.45163107
aF34.45163107
aF34.09280784
aF34.19595946
aF34.04658554
aF34.08138272
aF34.09280672
aF34.11574635
aF34.46031572
aF34.52212768
aF34.56273426
aF34.56681135
aF34.77347002
aF34.78212609
aF34.39229009
asVETH-SNT
p69
(lp70
F745.54478555
aF728.47169344
aF727.69628055
aF732.99681258
aF734.22132299
aF734.7780372
aF747.73247496
aF750.95773551
aF750.95773551
aF747.00172259
aF747.36774803
aF741.8743424
aF751.80892233
aF754.54045623
aF754.31915249
aF754.31765252
aF754.1679652
aF745.56237276
aF726.88464043
aF715.96855503
aF696.38813792
aF707.2392917
aF701.44166293
aF654.90726744
aF624.23997888
asVETH-XEM
p71
(lp72
F270.11324843
aF258.84266577
aF259.28766787
aF259.28766787
aF258.35791081
aF258.38609456
aF258.38609456
aF258.38609456
aF259.71853008
aF259.71763748
aF259.71763748
aF261.39140794
aF262.38890793
aF271.7585058
aF272.85667975
aF273.76706834
aF273.76706834
aF273.76706834
aF272.91291566
aF272.89953835
aF276.04323958
aF276.57828641
aF276.57828641
aF208.20815833
aF208.21656706
asVBTC-SBD
p73
(lp74
F5.48154385
aF5.48451108
aF5.46132644
aF5.47179706
aF5.47527717
aF5.48060046
aF5.4159203
aF5.96417826
aF5.92806107
aF5.92806107
aF5.87625643
aF5.91817949
aF5.94684528
aF6.0173714
aF6.04192491
aF6.11025359
aF6.08247352
aF6.08356612
aF6.12196063
aF6.10892096
aF6.07821929
aF6.04800375
aF6.03581222
aF6.67873094
aF6.7483394
asVBTC-CANN
p75
(lp76
F152.9218612
aF152.970533
aF153.06279817
aF153.1206316
aF153.41874192
aF153.44725731
aF153.68225297
aF153.82637943
aF154.10662199
aF154.08635063
aF154.09268881
aF154.27326494
aF154.89459825
aF152.91450625
aF151.68700042
aF145.73714392
aF125.72021357
aF113.35137084
aF103.93210967
aF97.71264446
aF95.13791017
aF93.74736419
aF92.24217207
aF91.92235487
aF90.99628018
asVBTC-SWT
p77
(lp78
F7.21987379
aF7.21749332
aF7.21749332
aF7.21993652
aF7.40887911
aF7.40887911
aF6.88362234
aF6.89444538
aF6.94105404
aF6.94638809
aF6.94709444
aF6.94709444
aF6.97068434
aF6.97068434
aF6.9212329
aF6.64017517
aF7.12577518
aF7.04969935
aF7.05066459
aF7.05966121
aF7.05264647
aF7.70091501
aF7.69891246
aF7.69891246
aF7.70518861
asVBTC-BLK
p79
(lp80
F128.23309616
aF128.28788731
aF128.59610541
aF127.74138531
aF128.54065795
aF128.74211495
aF129.60658327
aF131.14350095
aF132.06621225
aF133.27292847
aF134.18754017
aF134.51416565
aF134.62650464
aF135.83300331
aF135.93470003
aF135.9412924
aF135.98219775
aF135.92204674
aF136.44923105
aF136.78375692
aF138.17057961
aF137.51623902
aF137.72504345
aF140.93761932
aF142.58019299
asVBTC-UNO
p81
(lp82
F2.09429878
aF2.09429878
aF2.07610098
aF2.06657433
aF2.08688589
aF2.09403201
aF2.09403201
aF2.20471457
aF2.20471457
aF2.16728829
aF2.32395817
aF2.43564198
aF2.46553327
aF2.46553327
aF2.45555828
aF2.423664
aF2.21320975
aF2.2146362
aF2.21816817
aF2.23377036
aF2.29305808
aF2.29025807
aF2.59820893
aF2.59820893
aF2.78818843
asVETH-OMG
p83
(lp84
F5737.27222537
aF5676.84430526
aF5687.8823579
aF5663.46844897
aF5683.39719289
aF5681.83807117
aF5695.15496386
aF5712.36021178
aF5741.58091692
aF5706.74016282
aF5553.93643402
aF5566.08527537
aF5519.10993135
aF5438.60471508
aF5504.49779451
aF5571.23661397
aF5785.6119653
aF5821.69262149
aF5998.95611271
aF5937.8972128
aF7163.01568136
aF9970.13745431
aF10943.61131429
aF11319.47612302
aF11790.41992396
asVBTC-DASH
p85
(lp86
F368.0516915
aF367.58219051
aF367.75149187
aF368.26009151
aF370.57986107
aF372.15809154
aF370.87270075
aF369.10180106
aF368.47242523
aF367.65769944
aF368.37929996
aF364.63350787
aF364.58514076
aF364.34535235
aF363.7653685
aF364.23962048
aF365.3258057
aF366.19196174
aF364.47565354
aF364.84951729
aF363.67371493
aF358.3597992
aF353.57388243
aF350.67658851
aF348.97723798
asVETH-QTUM
p87
(lp88
F5805.01812827
aF5797.22469986
aF5809.50527646
aF5802.27792076
aF5811.58186439
aF5789.6355112
aF5789.99932508
aF5814.03836621
aF5982.68685476
aF6006.04067305
aF6091.73812911
aF6139.14129626
aF6181.2689448
aF6184.51151692
aF6227.11255794
aF6270.22920505
aF6273.82562967
aF6276.76067802
aF6267.05866558
aF6270.98358907
aF6412.58650143
aF6739.97045612
aF6778.76212446
aF6778.59802869
aF6867.09884487
asVBTC-FUN
p89
(lp90
F64.28464055
aF64.39599741
aF64.48355522
aF64.57060655
aF64.57118027
aF64.67023915
aF64.67172643
aF64.66054393
aF64.23425966
aF64.07616972
aF63.62043665
aF64.89268608
aF63.71397254
aF63.71397254
aF59.17644803
aF59.31726887
aF59.15996452
aF58.41793637
aF58.46244392
aF56.23135562
aF56.32183265
aF56.44426864
aF56.15419044
aF56.23014953
aF59.87785904
asVBTC-MAID
p91
(lp92
F91.62657605
aF91.69541671
aF91.80720627
aF92.17648556
aF92.1822636
aF92.40328314
aF92.20776503
aF93.15471384
aF94.04015772
aF94.08348849
aF94.69686326
aF94.70607846
aF95.24263134
aF95.52852091
aF96.07846823
aF96.25891144
aF97.20267786
aF97.46117364
aF98.49630321
aF98.49888317
aF98.49723532
aF98.17898957
aF96.4015309
aF96.15472031
aF94.46106019
asVBTC-ZEN
p93
(lp94
F48.16553742
aF47.9620362
aF48.18554248
aF48.17773755
aF47.89357823
aF48.02696958
aF48.00482137
aF48.03844446
aF48.08672214
aF47.92760271
aF48.11621457
aF48.05205638
aF48.41095976
aF48.42437006
aF48.70903542
aF47.6598054
aF47.98161588
aF47.54143834
aF47.90339702
aF47.87956777
aF48.06500086
aF46.99303367
aF43.44589482
aF37.2110024
aF35.71428904
asVBTC-AEON
p95
(lp96
F5.17826339
aF5.18358232
aF5.18426356
aF5.14347581
aF5.14347581
aF4.92864265
aF4.90474853
aF4.90474853
aF4.90474853
aF4.90474853
aF4.89680922
aF4.89680922
aF4.88081019
aF4.88081019
aF4.88081019
aF4.87873599
aF4.91789595
aF4.90792095
aF4.90792095
aF4.90975822
aF4.91526664
aF4.91953008
aF4.94214512
aF4.94214512
aF4.94214512
asVBTC-NEO
p97
(lp98
F3480.35865546
aF3501.46400536
aF3500.4576577
aF3528.22169316
aF3520.49377904
aF3522.50230118
aF3526.96758857
aF3529.29560854
aF3534.95990603
aF3551.49708944
aF3549.94962949
aF3539.75131718
aF3528.42586405
aF3529.29380757
aF3533.53344482
aF3553.11702119
aF3560.6415873
aF3598.8322992
aF3586.65307962
aF3579.39493387
aF3599.13840421
aF3657.10349887
aF3768.60223805
aF3820.26237282
aF3833.428949
asVETH-MCO
p99
(lp100
F1040.35556576
aF1050.15233903
aF1050.15233903
aF1052.36228883
aF1052.54952008
aF1043.91351208
aF1046.86396598
aF1044.26871947
aF1046.18397088
aF1046.11646217
aF1054.12530357
aF1054.13078067
aF1046.00038299
aF1055.4973504
aF1058.12628523
aF974.32944003
aF950.77165692
aF950.91575562
aF950.91575562
aF883.08117266
aF875.21507546
aF862.00996853
aF862.08524606
aF837.37976651
aF839.61760455
asVBTC-MONA
p101
(lp102
F26.20223911
aF26.25406559
aF26.40320908
aF26.42283508
aF26.39712931
aF26.43974024
aF26.43974024
aF27.05454995
aF26.98642985
aF26.81914617
aF26.84236516
aF26.91141688
aF26.93226101
aF26.91309473
aF26.4684702
aF26.46967433
aF26.47976207
aF26.47976207
aF26.41889192
aF26.25339455
aF26.24754363
aF26.24754363
aF26.31894841
aF26.19666902
aF26.18912336
asVETH-XLM
p103
(lp104
F64.46659485
aF64.46659485
aF64.46659485
aF64.46659485
aF62.32107695
aF55.57882637
aF55.57882637
aF55.79052978
aF55.79226798
aF55.79226798
aF55.79226798
aF57.60968508
aF57.60968508
aF57.60968508
aF57.60968508
aF57.60968508
aF57.50436669
aF57.50436669
aF57.50436669
aF57.49030921
aF58.442741
aF81.55374502
aF106.34189209
aF106.34189209
aF106.96511032
asVBTC-EDG
p105
(lp106
F231.19029971
aF231.81512058
aF237.24475631
aF244.54209108
aF247.23440278
aF250.69751784
aF255.74536192
aF263.53289488
aF297.7587007
aF304.10532153
aF314.7089545
aF324.43306385
aF327.93469036
aF335.9206793
aF361.20302079
aF370.17538648
aF379.12325025
aF395.97827597
aF403.35459446
aF406.88548188
aF416.43360353
aF420.83275909
aF419.13416476
aF424.27887341
aF427.27456382
asVETH-TIME
p107
(lp108
F32.12864131
aF20.58017934
aF20.38345667
aF20.38345667
aF20.38345667
aF13.56304359
aF13.56304359
aF11.13517998
aF11.80669125
aF11.80669125
aF11.94351612
aF11.94351612
aF11.94351612
aF11.94351612
aF11.94351612
aF11.97949737
aF11.04828097
aF11.04828097
aF11.04828097
aF11.04828097
aF11.04828097
aF11.04828097
aF10.97731643
aF10.97731643
aF10.97731643
asVBTC-EBST
p109
(lp110
F15.54805607
aF15.55614673
aF15.55614673
aF15.43727832
aF15.44725331
aF15.43166663
aF15.48994735
aF15.44200184
aF15.4488536
aF15.3152227
aF15.33051536
aF15.34303021
aF15.3636294
aF12.0961473
aF9.54739978
aF8.68651656
aF8.64395161
aF8.65351082
aF8.50775778
aF8.35209191
aF8.30269412
aF8.55905635
aF8.59778221
aF8.66628043
aF8.64993572
asVBTC-START
p111
(lp112
F4.64441126
aF4.64495954
aF4.64495954
aF4.63680255
aF4.64492019
aF4.48684774
aF4.48954559
aF4.48984925
aF4.48437464
aF4.47943209
aF4.47943209
aF4.48087274
aF4.38939542
aF4.4087871
aF4.40379866
aF4.44563338
aF4.44563338
aF4.43594294
aF4.43518588
aF4.43779563
aF4.44598283
aF4.44547403
aF4.44547403
aF4.44547403
aF4.38689497
asVBTC-FLO
p113
(lp114
F50.98979135
aF51.02791597
aF51.15650135
aF51.07550725
aF51.15362187
aF51.27314657
aF51.4544508
aF51.75993363
aF52.44727149
aF52.14476846
aF52.67669636
aF53.47893649
aF53.6809652
aF53.60508437
aF53.61962247
aF53.5945572
aF53.74804366
aF54.81889598
aF53.98805573
aF53.98065142
aF54.71706331
aF55.01868175
aF54.99508021
aF55.01991863
aF54.94426067
asVBTC-MYST
p115
(lp116
F19.14687986
aF18.85068941
aF18.93004223
aF18.96097794
aF18.80314406
aF18.80314406
aF18.7876183
aF18.79558622
aF18.79558622
aF18.89177418
aF18.91516869
aF19.04780147
aF19.39878024
aF19.035097
aF18.87811814
aF18.87811814
aF18.90329082
aF18.52480933
aF18.41882251
aF18.41882251
aF18.79489148
aF18.98736974
aF19.71348788
aF19.7546841
aF19.63703135
asVBTC-MCO
p117
(lp118
F414.01037418
aF416.36157333
aF415.59220312
aF416.48098559
aF418.72600244
aF420.02720696
aF420.09193903
aF420.74187194
aF419.92045879
aF422.43647084
aF424.28194971
aF425.11367103
aF424.43850872
aF424.24810882
aF424.04471099
aF426.76650574
aF425.13069614
aF420.76875343
aF421.40900687
aF421.71947111
aF422.00032499
aF421.90564069
aF420.18895044
aF421.69934457
aF418.12528687
asVBTC-WINGS
p119
(lp120
F113.18010327
aF115.21275205
aF115.80989894
aF117.41623026
aF121.0425565
aF125.43666054
aF125.19394161
aF126.9955871
aF126.60887902
aF126.48147968
aF128.31907491
aF134.73173426
aF156.76946989
aF161.03189443
aF161.16489818
aF162.47781103
aF163.2505383
aF164.21383244
aF164.71028107
aF167.49121854
aF169.1328848
aF170.67025818
aF171.55609483
aF171.85921173
aF173.93065302
asVBTC-XMY
p121
(lp122
F20.19087362
aF20.12212895
aF19.42603375
aF19.45748767
aF19.45910213
aF19.45910213
aF19.4596117
aF19.40303968
aF19.47026481
aF19.53726111
aF19.57500361
aF19.56015778
aF19.56463523
aF19.50038339
aF19.79133963
aF19.79133963
aF19.61359716
aF19.61359716
aF19.26692832
aF19.15606827
aF19.16786826
aF19.17635394
aF19.19065866
aF19.22105797
aF19.22105797
asVBTC-MTL
p123
(lp124
F481.25750589
aF494.52163151
aF499.36505808
aF501.92413285
aF505.56436638
aF508.87721842
aF514.37237544
aF519.61518968
aF530.58814038
aF531.6650907
aF535.28945199
aF536.93981256
aF540.05440608
aF540.9241446
aF538.74811568
aF539.65227141
aF535.96082531
aF535.40255395
aF536.77252219
aF539.5919446
aF543.94194433
aF545.52309311
aF548.49455691
aF557.8775582
aF567.56161226
asVETH-TRST
p125
(lp126
F40.53317709
aF40.53317709
aF40.58476071
aF41.16091705
aF41.16091705
aF41.16091705
aF41.16091705
aF41.16091705
aF41.16091705
aF41.16091705
aF41.23123912
aF41.06223198
aF41.06223198
aF41.34947203
aF41.63005416
aF43.04058481
aF42.84275346
aF42.9152181
aF42.98764589
aF43.16561425
aF43.16561425
aF43.16561425
aF43.16561425
aF43.16561425
aF43.16561425
asVBTC-PDC
p127
(lp128
F9.5032184
aF9.4939864
aF8.90474747
aF8.86002294
aF9.02535193
aF8.89936207
aF8.89936207
aF8.91772147
aF8.92030223
aF8.92030223
aF8.92030223
aF8.84633418
aF8.84633418
aF8.92661865
aF8.90741508
aF8.90854599
aF8.8926502
aF9.03884532
aF9.04428551
aF9.06723057
aF9.05862634
aF9.0021713
aF9.00064517
aF9.01740519
aF9.00533978
asVETH-CVC
p129
(lp130
F1390.6749826
aF1394.39667171
aF1400.63659233
aF1405.65731352
aF1414.56798157
aF1415.82588745
aF1409.73643012
aF1409.89251971
aF1412.99345914
aF1421.52486568
aF1420.32968176
aF1414.69250575
aF1407.41589926
aF1410.73342759
aF1410.3486387
aF1410.3486387
aF1396.1744053
aF1390.6008211
aF1390.56917916
aF1384.3456776
aF1419.60101452
aF1430.6737068
aF1420.67154604
aF1367.00047654
aF1287.34287395
asVETH-XMR
p131
(lp132
F447.31582655
aF447.58226943
aF450.1891173
aF449.93616312
aF450.25685295
aF453.7884828
aF457.67091452
aF457.67091452
aF457.85159574
aF457.85159574
aF457.88679629
aF458.54707079
aF473.56889293
aF473.23172205
aF473.23172205
aF423.7612481
aF423.7612481
aF433.73624677
aF433.34440748
aF439.75673141
aF437.77096332
aF454.66698173
aF461.02315226
aF461.02315226
aF464.51852464
asVBTC-PPC
p133
(lp134
F26.91971008
aF26.92265175
aF27.02578345
aF27.02130004
aF27.09286635
aF27.09286635
aF27.0247639
aF27.18143623
aF27.03574425
aF27.14565704
aF27.96178837
aF27.9785342
aF27.90426552
aF27.9294118
aF27.98104342
aF28.25056493
aF28.26996197
aF28.30129405
aF28.35944291
aF28.33668968
aF28.33668968
aF28.26998378
aF28.20176936
aF28.5258162
aF28.6798807
asVETH-LTC
p135
(lp136
F1109.30773475
aF1113.64048378
aF1114.61999358
aF1114.62487958
aF1114.2743247
aF1053.89562932
aF1056.79711252
aF1058.0113791
aF1044.33563456
aF1046.18613839
aF1061.08035028
aF1079.07361743
aF1109.64273966
aF1109.70998911
aF1087.61752911
aF1087.81193419
aF1088.62293299
aF1079.47741964
aF1033.93217604
aF1005.51938313
aF980.14825368
aF923.21539278
aF1073.78854274
aF1088.00756292
aF1086.69831451
asVUSDT-LTC
p137
(lp138
F2355146.20957641
aF2354942.02196358
aF2353943.97549594
aF2351911.58442317
aF2303851.69356434
aF2268827.2926791
aF2263655.31353477
aF2260819.7164032
aF2238813.63492824
aF2226076.26717216
aF2215937.2581057
aF2262348.78232247
aF2286346.84145953
aF2263203.59242162
aF2254631.66756564
aF2253754.35909621
aF2260175.09010549
aF2205863.7959319
aF2134444.99253236
aF2105755.1520334
aF2149269.53066803
aF2115728.66000727
aF2085806.47964551
aF2152015.87315703
aF2171655.46904354
asVBTC-ADT
p139
(lp140
F18.30773644
aF18.26131329
aF18.38905663
aF18.39832082
aF18.40152861
aF18.484999
aF18.484999
aF18.51534767
aF18.58052361
aF18.58052361
aF18.58052361
aF18.51795937
aF18.51795937
aF18.50879935
aF18.51579509
aF18.63355234
aF18.65101052
aF18.65158591
aF18.34095081
aF18.13894653
aF18.13894653
aF17.83645289
aF17.92393311
aF17.91275616
aF17.87427339
asVBTC-LUN
p141
(lp142
F249.96988006
aF253.47062197
aF253.88806617
aF261.62158366
aF262.70709824
aF266.26396312
aF267.16919278
aF270.2852508
aF270.60689479
aF270.5884342
aF271.17071008
aF272.07446628
aF272.3567072
aF273.41209101
aF274.01902382
aF275.90248147
aF276.62088725
aF277.06577442
aF298.54372672
aF300.57462572
aF304.49436677
aF313.89672363
aF316.04909101
aF319.52622133
aF320.22301164
asVBTC-DGB
p143
(lp144
F2063.89358487
aF2060.33705444
aF2064.81903613
aF2065.40261655
aF2066.75260038
aF2067.82730105
aF2072.88402992
aF2077.54659831
aF2085.99124255
aF2090.02445568
aF2092.15390863
aF2100.67011976
aF2154.41147295
aF2204.43834501
aF2239.64370752
aF2319.08193193
aF2374.71813804
aF2409.40547231
aF2424.91120165
aF2438.24263076
aF2456.37831164
aF2492.73183983
aF2511.22102776
aF2513.3440111
aF2519.09261451
asVETH-ETC
p145
(lp146
F382.21591434
aF379.98435874
aF386.49928472
aF385.54714532
aF380.16929007
aF379.26479887
aF379.42935959
aF397.21927509
aF398.56792507
aF398.57717982
aF400.09877319
aF396.74877294
aF396.800059
aF389.47704803
aF382.33392957
aF343.30763512
aF343.30763512
aF336.27261179
aF328.63823859
aF328.63823859
aF295.20222488
aF338.30936571
aF338.12221345
aF338.12321343
aF333.13685322
asVBTC-RISE
p147
(lp148
F1037.48469919
aF1039.05473878
aF1048.98354651
aF1056.59749634
aF1058.52687223
aF1064.26980256
aF1067.27377813
aF1070.7747693
aF1074.22840728
aF1075.92620525
aF1084.58972457
aF1093.24142467
aF1098.41111545
aF1100.90871787
aF1101.731579
aF1105.45457361
aF1110.99999285
aF1115.06804899
aF1124.62069892
aF1129.29048966
aF1151.6925067
aF1165.6364166
aF1173.53528593
aF1183.20864033
aF1187.8791343
asVETH-PTOY
p149
(lp150
F67.70374467
aF64.70986596
aF64.81294745
aF64.81294745
aF64.79103605
aF64.79103605
aF64.79103605
aF64.62454191
aF64.62454191
aF64.62454191
aF63.78927297
aF63.78927297
aF63.78927297
aF63.78927297
aF63.78927297
aF63.30150398
aF63.30150398
aF63.23829664
aF63.23829664
aF63.23829664
aF64.30554831
aF66.61347089
aF66.61347089
aF66.4660749
aF64.79400492
asVBTC-ADX
p151
(lp152
F238.50809902
aF239.86405545
aF240.10084034
aF238.78277634
aF238.42840118
aF240.74955314
aF240.85765516
aF241.19431703
aF243.49247498
aF244.76929666
aF241.96067081
aF241.81143027
aF241.73428152
aF240.89629485
aF241.73783764
aF239.98522605
aF239.90878313
aF238.12514488
aF238.77133492
aF239.62306944
aF238.89492824
aF242.44332295
aF250.92938385
aF253.87088948
aF257.26728231
asVBTC-VIA
p153
(lp154
F97.05434658
aF96.96022356
aF96.99140819
aF95.89833756
aF95.89833756
aF95.64744808
aF95.64744808
aF95.59452236
aF95.59452236
aF95.43760111
aF95.88709361
aF96.03590484
aF95.3376272
aF95.9033018
aF95.9033018
aF93.70695814
aF93.79515725
aF93.43710826
aF94.15755685
aF94.0088845
aF94.21547709
aF94.1523007
aF93.57456587
aF94.64566079
aF95.76527118
asVBTC-PINK
p155
(lp156
F36.20126774
aF36.795576
aF36.77266498
aF36.79037112
aF36.93046409
aF36.90965574
aF35.97170456
aF36.13779308
aF38.72161613
aF39.97886147
aF40.1744913
aF40.2501738
aF40.20127883
aF40.05652735
aF40.09551355
aF39.5896021
aF39.58969562
aF38.91021436
aF38.84896484
aF38.83949998
aF39.11341303
aF39.06282843
aF38.98791866
aF39.08597816
aF38.96788827
asVBTC-PIVX
p157
(lp158
F174.75885232
aF175.4956121
aF171.88470331
aF172.21644989
aF175.16423746
aF176.37458968
aF176.03017276
aF176.40258865
aF176.63465917
aF178.13623592
aF178.5758222
aF178.74262968
aF178.58978436
aF179.28986607
aF180.5881401
aF180.33618459
aF180.43224802
aF182.45915699
aF183.89867558
aF184.18596649
aF185.77061861
aF187.32946386
aF186.6833388
aF187.63319339
aF189.52198454
asVETH-GNT
p159
(lp160
F407.05092067
aF406.54352474
aF407.03332147
aF408.86758991
aF416.97392438
aF423.01181359
aF427.98228053
aF427.53579394
aF428.0806161
aF427.79377753
aF426.0197319
aF425.90485709
aF429.73308658
aF428.77525164
aF425.49819194
aF438.47033396
aF437.92265871
aF441.12520875
aF449.18870111
aF451.60371127
aF456.80341119
aF455.78356563
aF456.3997731
aF456.3997731
aF449.77820857
asVBTC-DTB
p161
(lp162
F14.06263066
aF14.43690805
aF14.67686659
aF14.65427386
aF14.65427386
aF14.65427386
aF14.64403741
aF14.65078872
aF13.50971844
aF13.60966945
aF13.50491034
aF13.50491034
aF13.22382752
aF12.81716371
aF12.81962468
aF12.9752319
aF13.27217754
aF13.20926199
aF13.20926199
aF13.26158262
aF13.68064651
aF13.71936356
aF13.71936356
aF14.89388092
aF14.89388092
asVBTC-NXS
p163
(lp164
F231.63308914
aF231.70247535
aF231.90742804
aF231.68488361
aF231.52875377
aF231.13129267
aF231.79974668
aF233.48322756
aF233.76372764
aF234.74536642
aF236.9627118
aF239.15933025
aF242.22758693
aF246.1711159
aF246.98097196
aF247.37723209
aF247.04339666
aF245.08468125
aF244.28698221
aF230.74191852
aF229.97402677
aF227.21474702
aF226.1275735
aF227.34721628
aF228.21258183
asVBTC-AGRS
p165
(lp166
F4.23017779
aF4.23017779
aF4.23517711
aF4.23517711
aF4.23517711
aF4.23517711
aF4.23517711
aF4.24225874
aF4.16903556
aF4.17628437
aF4.17628437
aF4.33850792
aF4.33850792
aF4.36077934
aF4.36128806
aF4.36128806
aF4.36128806
aF4.36128806
aF4.36128806
aF4.36128806
aF4.31727425
aF4.31727425
aF4.31727425
aF4.31727425
aF4.31727425
asVBTC-GEO
p167
(lp168
F23.61524014
aF23.5820879
aF23.46883585
aF23.47318391
aF23.52311001
aF23.50241103
aF23.42393393
aF23.4731998
aF23.47478254
aF23.47528252
aF23.47528252
aF23.33230125
aF23.26261283
aF23.43510572
aF23.44236599
aF23.37154824
aF23.31014476
aF23.28315818
aF23.23157929
aF23.24977452
aF22.69124881
aF22.70943363
aF22.69222839
aF22.55800485
aF22.55663553
asVBTC-SHIFT
p169
(lp170
F20.73357417
aF20.58263758
aF20.48079351
aF27.84437284
aF27.8951092
aF28.39294575
aF30.149157
aF32.81007492
aF33.38645705
aF34.06538976
aF35.02491123
aF36.29997996
aF41.35515283
aF44.37276426
aF45.52720719
aF45.60845563
aF44.28865881
aF44.234276
aF44.40537882
aF47.82130053
aF48.82024581
aF48.76567233
aF48.97115127
aF48.43255132
aF49.05905297
asVBTC-SC
p171
(lp172
F246.18290935
aF247.25469453
aF249.37950772
aF249.82007837
aF252.04922802
aF249.61296626
aF250.10109273
aF254.35707671
aF254.78513354
aF255.93095377
aF256.54913485
aF256.99636798
aF261.50297895
aF261.22961054
aF259.84169159
aF265.89544132
aF268.36919779
aF270.95614021
aF270.78186888
aF275.72193997
aF274.82528539
aF275.4532078
aF275.13223141
aF273.25761512
aF274.36098323
asVBTC-TIME
p173
(lp174
F28.33998466
aF24.1524688
aF23.57840783
aF23.32476433
aF21.64592873
aF18.09786396
aF18.06308407
aF17.76803166
aF17.54142364
aF17.5912302
aF19.42015625
aF20.73905294
aF21.73654334
aF21.73790207
aF21.73790207
aF21.70534539
aF21.70534539
aF21.45124815
aF21.45224565
aF21.54693634
aF21.48720984
aF20.34208289
aF20.33723888
aF19.50589705
aF19.5116674
asVBTC-CLUB
p175
(lp176
F8.27665427
aF8.30734821
aF8.30734821
aF8.27795593
aF8.28639358
aF8.28639358
aF8.10077358
aF8.10077358
aF8.10077358
aF8.10077358
aF8.10077358
aF8.10077358
aF8.14167187
aF8.14467186
aF8.14467186
aF8.14467186
aF8.14356869
aF8.14356869
aF8.14019373
aF8.14019373
aF8.13565539
aF8.13565539
aF8.13565539
aF7.98349813
aF7.98349813
asVETH-CFI
p177
(lp178
F41.69426393
aF42.08800358
aF42.08800358
aF42.07835098
aF42.07835098
aF42.5619277
aF42.5619277
aF42.5619277
aF46.18773429
aF46.25973429
aF45.60264124
aF45.60264124
aF45.60264124
aF45.60264124
aF45.60264124
aF45.60264124
aF45.60264124
aF45.60264124
aF45.60264124
aF45.11864124
aF44.10235134
aF45.38021913
aF45.38021913
aF45.38021913
aF45.46278124
asVBTC-AUR
p179
(lp180
F1.80693611
aF1.80038102
aF1.80317625
aF1.80436644
aF1.80479651
aF1.80479651
aF1.8021456
aF1.78607481
aF1.77555383
aF1.77555383
aF1.77196642
aF1.78541383
aF1.78382754
aF1.78204564
aF1.82279482
aF1.82249741
aF1.82507167
aF1.82507167
aF1.82398745
aF1.81945553
aF1.81945553
aF1.81077226
aF1.8143657
aF1.8128367
aF1.81599404
asVBTC-EXP
p181
(lp182
F130.12538564
aF130.1750632
aF129.80199011
aF130.95788545
aF131.47257289
aF139.07196459
aF142.63657746
aF143.72645607
aF148.80985352
aF154.3015968
aF161.45018095
aF171.41026506
aF183.00185667
aF203.99005617
aF211.20437406
aF219.33972946
aF222.57041263
aF228.4445847
aF233.55512799
aF235.30942162
aF238.2782731
aF243.1674697
aF245.57628763
aF247.71430323
aF248.89669222
asVBTC-NXT
p183
(lp184
F216.5403878
aF212.83693945
aF213.1591685
aF213.91428794
aF213.99590183
aF214.10906846
aF215.81954457
aF216.88623279
aF216.98124593
aF217.3977307
aF222.58949544
aF222.81914178
aF223.10834393
aF226.28546568
aF225.72083474
aF228.18487837
aF228.271515
aF224.09676672
aF224.02758205
aF224.2146886
aF224.72399207
aF225.17527361
aF227.80162701
aF227.6023667
aF225.19734847
asVBTC-XLM
p185
(lp186
F130.73897604
aF130.02715205
aF129.61073877
aF129.78912097
aF129.16186966
aF128.24995253
aF128.55572155
aF128.04860481
aF128.12554506
aF128.91232163
aF129.05827743
aF129.43535249
aF129.39765302
aF129.35005728
aF129.31492874
aF127.54868616
aF127.58842377
aF128.1550612
aF128.93486466
aF128.6941618
aF137.77840048
aF146.1761609
aF146.44959262
aF146.91289497
aF146.92720277
asVETH-GNO
p187
(lp188
F40.0307536
aF40.0307536
aF40.0307536
aF40.0307536
aF40.0307536
aF40.20755579
aF41.86623693
aF41.8905238
aF41.8905238
aF41.8905238
aF41.8905238
aF41.88816099
aF43.2002781
aF43.2002781
aF43.3364837
aF43.3364837
aF43.3364837
aF43.3364837
aF39.83248357
aF37.96849405
aF40.50794542
aF40.50794542
aF40.50794542
aF40.50794542
aF40.50794542
asVBTC-DOPE
p189
(lp190
F20.53552417
aF20.57422717
aF20.57308117
aF20.57308117
aF20.60979706
aF20.60979706
aF20.60979706
aF20.65704012
aF20.65769086
aF19.98766851
aF20.00589741
aF20.00589741
aF20.00589741
aF20.00589741
aF20.00589741
aF20.00419941
aF18.28183266
aF18.28183266
aF15.01271505
aF12.14022619
aF11.28142837
aF11.28142837
aF10.9267998
aF10.57644289
aF10.57644289
asVETH-HMQ
p191
(lp192
F33.88337594
aF33.88337594
aF31.29011759
aF31.0202732
aF31.0202732
aF31.0202732
aF30.80593816
aF30.80593816
aF31.05104377
aF31.05104377
aF31.05104377
aF29.42502068
aF28.88365072
aF28.88365072
aF27.95009529
aF24.8575546
aF21.99466683
aF21.99466683
aF19.13725086
aF17.22773786
aF17.29614238
aF17.29614238
aF17.29614238
aF17.29614238
aF17.29614238
asVBTC-POT
p193
(lp194
F15.53175108
aF15.61569075
aF15.61378845
aF15.61378845
aF15.61616004
aF15.62557538
aF15.25462983
aF14.83116629
aF14.8720127
aF14.87387406
aF14.91526406
aF14.86152327
aF14.65755081
aF14.67423734
aF14.64950447
aF14.69805701
aF14.42619096
aF14.15402159
aF14.0447474
aF13.76918876
aF13.45848269
aF13.48073422
aF13.45880892
aF13.46439472
aF13.46521451
asVBTC-BNT
p195
(lp196
F60.21395023
aF58.6155785
aF58.72530892
aF58.62140794
aF58.61930174
aF59.27700857
aF59.07175988
aF58.77843734
aF58.52282319
aF57.75208244
aF57.44196074
aF57.76756212
aF57.83197928
aF58.01982535
aF57.76397857
aF55.72258209
aF55.30758958
aF55.25754866
aF54.93204236
aF54.59034141
aF56.12669987
aF52.70200918
aF50.8049567
aF50.82137
aF50.85459059
asVETH-ADX
p197
(lp198
F201.90992748
aF198.1619212
aF198.1619212
aF195.20014488
aF193.52891391
aF194.12215842
aF194.12215842
aF194.46712566
aF194.82940322
aF194.82940322
aF194.99573309
aF194.45856665
aF196.91013647
aF196.99869775
aF196.98565572
aF196.87736568
aF198.00974904
aF198.64646311
aF190.00880137
aF190.29042722
aF191.07489087
aF204.51331351
aF208.84915825
aF217.50875175
aF218.08021415
asVBTC-ARK
p199
(lp200
F2719.10132821
aF2750.3122287
aF2769.92427956
aF2791.14452931
aF2825.97974488
aF2857.42294493
aF2872.45693603
aF2905.50850428
aF2912.88031971
aF2926.740026
aF2941.04942279
aF2949.36203865
aF2977.30684524
aF3020.0413921
aF3078.98188426
aF3112.21509806
aF3151.10779659
aF3170.38958532
aF3173.83126321
aF3186.73425701
aF3241.68004764
aF3328.04090448
aF3344.60880084
aF3352.09495373
aF3378.19414374
asVBTC-DRACO
p201
(lp202
F1.53774635
aF1.53774635
aF1.5145036
aF1.5145036
aF1.5159436
aF1.51843644
aF1.51843644
aF1.50975231
aF1.53791524
aF1.53791524
aF1.53791524
aF1.53506524
aF1.53506524
aF1.53506524
aF1.52894722
aF1.52789027
aF1.52789027
aF1.53071452
aF1.55737688
aF1.55744795
aF1.55744795
aF1.55744795
aF1.55744795
aF1.55744795
aF1.55744795
asVBTC-ZEC
p203
(lp204
F287.26537758
aF286.95183294
aF294.20154053
aF292.80505244
aF305.78514425
aF309.83472748
aF310.12980165
aF309.8223155
aF311.17159866
aF310.69562114
aF309.38504838
aF309.21154491
aF309.43837568
aF311.26710657
aF311.54206664
aF311.28907168
aF307.71077029
aF308.27655731
aF306.19469839
aF304.84708699
aF311.46901996
aF319.3499017
aF319.21627283
aF320.8617408
aF319.98629541
asVBTC-MUE
p205
(lp206
F28.66128504
aF28.50741607
aF28.42077977
aF28.42526477
aF28.42892613
aF28.43436751
aF28.41105121
aF28.47654661
aF28.49384426
aF28.77673553
aF28.78006722
aF28.78006722
aF29.03005828
aF29.96584501
aF30.00094891
aF30.03394229
aF29.80607379
aF29.74946191
aF29.59600958
aF29.69613373
aF30.67426388
aF31.01228679
aF31.71458443
aF32.13267839
aF32.17260669
asVBTC-AMP
p207
(lp208
F39.86882665
aF39.31630707
aF39.31630707
aF39.37575449
aF39.40942333
aF39.40942333
aF39.3690728
aF39.40848632
aF39.477358
aF39.77722166
aF40.08919056
aF40.58085458
aF40.68869599
aF40.78240777
aF40.68555892
aF40.68555892
aF40.7391441
aF41.74317181
aF41.74317181
aF37.63314065
aF37.62509826
aF37.62509826
aF36.85776289
aF36.85776289
aF36.91162685
asVBTC-SAFEX
p209
(lp210
F107.07980604
aF106.6404063
aF105.31745819
aF105.7348686
aF105.64331019
aF113.46699438
aF115.4715535
aF109.79981522
aF109.78149584
aF109.20917373
aF107.72681054
aF106.08672553
aF105.50986256
aF105.74891159
aF106.06073661
aF105.15956669
aF105.02734082
aF104.7260597
aF104.57227207
aF104.38896089
aF104.53752822
aF105.16713434
aF104.50751253
aF104.15877028
aF103.29908188
asVBTC-OMNI
p211
(lp212
F26.81187142
aF26.79018142
aF27.36964678
aF27.37980048
aF27.39040379
aF27.39822746
aF27.45533387
aF27.55927278
aF27.57499373
aF27.57792209
aF28.0933384
aF27.92237305
aF27.92237305
aF27.5820156
aF27.56601885
aF27.61752361
aF27.5791864
aF26.92036326
aF26.97491449
aF27.19018997
aF27.23160079
aF27.23670672
aF27.40358567
aF27.40358567
aF27.20840833
asVBTC-PTC
p213
(lp214
F37.33242246
aF37.54938928
aF37.74478062
aF37.74254101
aF37.74148302
aF37.74557835
aF37.74660069
aF37.76713427
aF37.7157554
aF37.7635022
aF37.77335536
aF37.77335536
aF31.21819764
aF31.07645325
aF31.01160004
aF30.96490943
aF30.96490943
aF31.22671853
aF31.24789992
aF31.25414192
aF31.33769333
aF31.3295168
aF31.39532839
aF31.59688654
aF31.71462693
asVBTC-LGD
p215
(lp216
F54.66217523
aF54.66217557
aF54.70274913
aF54.70274913
aF54.89902711
aF55.00302096
aF55.1649751
aF55.83246791
aF55.75671814
aF55.88834702
aF55.88834702
aF55.77375358
aF55.79166053
aF55.62474703
aF55.64849217
aF55.78987906
aF56.14136579
aF56.37310755
aF56.21511031
aF56.81890475
aF55.74570167
aF55.87349128
aF55.82725228
aF55.88847984
aF55.97719902
asVBTC-ARDR
p217
(lp218
F112.37731661
aF112.3961831
aF112.45961661
aF112.77410804
aF113.74460407
aF113.4520121
aF112.49749169
aF111.77447059
aF110.85387335
aF112.73908867
aF112.85080553
aF114.13639786
aF114.33997971
aF115.44681076
aF115.94350014
aF116.10103467
aF116.05733491
aF112.92988741
aF113.68107031
aF113.73802551
aF113.64455919
aF117.41140376
aF117.39724605
aF117.09978922
aF116.75565737
asVBTC-SNGLS
p219
(lp220
F130.79296129
aF129.96224461
aF129.49969626
aF129.39724938
aF128.5764145
aF128.47572297
aF128.3491384
aF129.92293775
aF128.63030805
aF128.60698475
aF128.72567917
aF127.65768334
aF127.29560502
aF123.89767497
aF116.05330381
aF109.59302225
aF107.85628367
aF104.27990953
aF100.45067034
aF98.74715886
aF97.51860197
aF97.45559893
aF94.68040757
aF92.73314294
aF91.01414847
asVBTC-SLR
p221
(lp222
F6.41413584
aF6.41413584
aF6.41023001
aF6.42079501
aF6.43367701
aF6.47593728
aF6.46581993
aF6.46640804
aF6.38222378
aF6.41108238
aF6.45366591
aF6.46182738
aF6.4621569
aF6.3791304
aF6.41891389
aF6.41991139
aF6.47363144
aF6.49280219
aF6.48183482
aF6.52781573
aF6.52686616
aF6.75220414
aF6.76220645
aF6.77626091
aF6.81909658
asVBTC-SLS
p223
(lp224
F2.71579545
aF2.72093216
aF2.72093216
aF2.72324779
aF2.73024778
aF2.76059299
aF2.85059299
aF2.85059299
aF2.85059299
aF2.85059299
aF2.85059299
aF2.85419299
aF2.85419299
aF2.85419299
aF2.85470171
aF2.85470171
aF2.85470171
aF2.85470171
aF2.85573458
aF2.85573458
aF2.85573458
aF2.6215107
aF2.62048948
aF2.62048948
aF2.51900323
asVETH-1ST
p225
(lp226
F100.92159411
aF100.92159411
aF100.92159411
aF100.92159411
aF97.38034915
aF95.02968681
aF96.06656477
aF96.06656477
aF96.06656477
aF96.06656477
aF96.06656477
aF96.06656477
aF95.49915622
aF95.49915622
aF95.49915622
aF94.57383493
aF94.14719395
aF94.50449649
aF99.22213735
aF99.27381685
aF99.00264961
aF99.00264961
aF96.13744814
aF82.99618284
aF82.75585305
asVETH-PAY
p227
(lp228
F1209.94286165
aF1196.45268306
aF1189.79888754
aF1189.84826255
aF1188.55132154
aF1195.2556826
aF1196.98732263
aF1199.92885736
aF1219.02435663
aF1215.56317489
aF1214.21287603
aF1179.86752585
aF1183.72935537
aF1190.40585211
aF1182.70664055
aF1174.69375755
aF1226.92035085
aF1226.92035085
aF1225.64619401
aF1228.92918744
aF1219.30650407
aF1334.56316561
aF1353.01647062
aF1389.26256861
aF1395.34504451
asVETH-BAT
p229
(lp230
F442.80887631
aF442.80887631
aF443.48638465
aF443.48638465
aF483.7424938
aF483.89434966
aF484.51366651
aF487.41321207
aF514.42086026
aF516.1976184
aF529.73022542
aF535.6744633
aF536.42049337
aF536.52952909
aF543.46809237
aF593.46855702
aF593.46855702
aF592.59511493
aF633.8892167
aF636.10283683
aF635.47805714
aF639.82766748
aF668.17039485
aF698.58671736
aF702.31316165
asVBTC-GNT
p231
(lp232
F299.14314966
aF298.6304471
aF299.91694939
aF300.33770895
aF301.3887469
aF298.45463836
aF299.44430782
aF300.16502311
aF299.61724655
aF299.02173784
aF299.17149366
aF300.79290201
aF299.17283651
aF298.34482368
aF298.87456466
aF299.47709743
aF300.37046996
aF304.21381084
aF304.71401515
aF304.61959347
aF309.15879883
aF310.60009669
aF311.33444554
aF312.18712026
aF316.30729957
asVBTC-GUP
p233
(lp234
F36.85148028
aF36.85148028
aF36.85148028
aF37.17081326
aF37.27022211
aF37.84417325
aF37.95530278
aF37.96555891
aF37.96555891
aF38.12740491
aF38.12740491
aF36.91582047
aF36.80758172
aF36.64390753
aF36.64445607
aF36.46260222
aF36.46260222
aF35.98726668
aF35.98726668
aF35.96015688
aF36.27390726
aF34.70041614
aF34.68189338
aF35.02281464
aF35.02281464
asVETH-SC
p235
(lp236
F64.74348321
aF64.69561663
aF64.69501814
aF65.22660924
aF65.45250923
aF65.45250923
aF65.45250923
aF65.45250923
aF65.35284631
aF63.53764654
aF63.53764654
aF63.53764654
aF64.20684917
aF64.40039417
aF64.40039417
aF64.41434234
aF64.55091395
aF64.67850197
aF64.76370696
aF65.67256919
aF65.67256919
aF63.13232801
aF63.13232801
aF61.39320514
aF61.41605514
asVBTC-UNB
p237
(lp238
F8.28725648
aF8.2376867
aF8.24089894
aF8.24197851
aF6.97913472
aF6.97913472
aF6.98213603
aF6.43737709
aF6.49758129
aF6.49932648
aF6.49913599
aF6.49972635
aF6.46058522
aF6.46058522
aF6.46172561
aF6.52286836
aF6.51582371
aF6.51582371
aF6.51269822
aF6.51269822
aF6.55049303
aF6.55266698
aF6.55966907
aF6.41023355
aF6.45359223
asVBTC-COVAL
p239
(lp240
F29.07294949
aF29.02838369
aF28.76479253
aF28.75228204
aF28.60509605
aF28.37233119
aF28.10350914
aF26.59008975
aF26.09920128
aF26.13209549
aF26.48756111
aF26.27143083
aF26.15877623
aF26.15877623
aF26.38219997
aF26.12021403
aF26.13595696
aF26.26991495
aF27.01477229
aF26.78795642
aF26.78795642
aF26.50562373
aF26.2039772
aF26.15388551
aF26.0848241
asVBTC-ENRG
p241
(lp242
F3.57495527
aF3.57495527
aF3.58079527
aF3.63799237
aF3.66377541
aF3.67740007
aF3.68238756
aF3.68238756
aF3.72668467
aF3.80401157
aF3.81178193
aF3.81178193
aF3.81178193
aF3.86031012
aF3.86031012
aF3.86031012
aF3.86031012
aF3.86031012
aF3.86031012
aF3.86226318
aF3.86226318
aF4.0799765
aF4.08954541
aF4.08954541
aF4.16094121
asVETH-FUN
p243
(lp244
F338.5960743
aF338.5960743
aF338.5960743
aF334.03564872
aF334.03564872
aF334.03564872
aF334.03382558
aF334.03382558
aF331.31316998
aF328.0236402
aF325.26936379
aF324.92695546
aF323.70632571
aF323.70632571
aF323.56462366
aF323.61383048
aF323.82591338
aF323.00946647
aF322.68626405
aF310.46558748
aF310.33845078
aF310.51533661
aF306.57272154
aF306.57272154
aF324.27433267
asVETH-BCC
p245
(lp246
F931.80922363
aF917.71917724
aF918.57088265
aF918.57088265
aF916.91994074
aF916.96221736
aF916.96221736
aF933.75345831
aF935.20214558
aF935.20214558
aF933.59280647
aF939.09348578
aF971.09080718
aF999.44908955
aF999.44908955
aF1013.90676312
aF1013.90676312
aF1020.0496503
aF1019.17078423
aF1021.46285543
aF1149.56083105
aF1229.77568625
aF1229.58620722
aF1226.25499514
aF1190.84004937
asVBTC-XVC
p247
(lp248
F298.19601002
aF302.08616642
aF306.44998922
aF308.46915911
aF311.33196107
aF315.94558025
aF316.64390148
aF317.79188293
aF320.00698576
aF320.54903912
aF321.4729903
aF322.87650993
aF324.80523201
aF328.17791834
aF329.14825039
aF332.38426668
aF333.36559146
aF335.25637333
aF335.85640777
aF339.79255051
aF340.25032215
aF344.66121163
aF345.14755722
aF345.7810526
aF347.41398685
asVBTC-RADS
p249
(lp250
F38.3981956
aF38.3981956
aF38.39886926
aF38.39886926
aF38.59693507
aF39.36769374
aF39.3767689
aF39.39124169
aF39.45977331
aF39.6512166
aF39.79472523
aF39.82779569
aF41.89564197
aF41.96115834
aF42.01541677
aF42.09227889
aF42.15185789
aF42.15280769
aF42.15796563
aF42.1523017
aF42.4543996
aF43.16893219
aF43.16893219
aF43.11282641
aF43.12563377
asVBTC-XVG
p251
(lp252
F1420.2843187
aF1424.01179096
aF1423.4990199
aF1417.96991545
aF1417.18648238
aF1429.17420607
aF1432.00400961
aF1432.13534338
aF1437.21372526
aF1437.63042964
aF1385.49453318
aF1388.55475923
aF1389.76001281
aF1385.64535316
aF1386.17587332
aF1384.76402449
aF1387.96300146
aF1383.75590209
aF1381.13473355
aF1377.64225961
aF1362.50857312
aF1361.52736364
aF1357.0984145
aF1352.88960276
aF1353.22302702
asVETH-LGD
p253
(lp254
F25.43748681
aF25.43748681
aF25.43748681
aF25.43748681
aF25.43748681
aF25.43748681
aF25.43748681
aF25.48790308
aF25.48790308
aF25.4905494
aF25.63435104
aF25.63435104
aF25.63435104
aF25.63435104
aF25.63435104
aF25.63435104
aF25.63435104
aF25.63435104
aF25.63435104
aF25.63435104
aF24.31577687
aF24.47122759
aF24.47122759
aF24.47122759
aF24.47122759
asVBTC-EFL
p255
(lp256
F1.81641072
aF1.81641072
aF1.81641072
aF1.80086343
aF1.80086343
aF1.79576396
aF1.79576396
aF1.79576396
aF1.79231825
aF1.79231825
aF1.78460904
aF1.78460904
aF1.77460583
aF1.77653822
aF1.79114822
aF1.80094771
aF1.80094771
aF1.80094771
aF1.80094771
aF1.80363171
aF1.78421576
aF1.78036144
aF1.58443606
aF1.58443606
aF1.68788332
asVETH-SNGLS
p257
(lp258
F411.27970285
aF408.36928913
aF406.00572368
aF406.49329149
aF406.14007086
aF406.14007086
aF401.24375845
aF418.10985396
aF422.25310924
aF426.64817975
aF427.98743164
aF428.44671717
aF430.17316998
aF427.80066338
aF417.76043842
aF397.20775132
aF395.16436867
aF386.52643522
aF385.872618
aF388.32357566
aF386.71263227
aF399.23893976
aF397.81731231
aF394.97422622
aF391.81018411
asVBTC-GNO
p259
(lp260
F11.67518264
aF11.53849953
aF11.53232729
aF11.53232729
aF11.59921969
aF11.77027919
aF11.77027919
aF13.79225542
aF13.8248828
aF13.85506818
aF13.03386411
aF12.79610171
aF12.30235265
aF12.0553828
aF12.0553828
aF12.08290345
aF12.06041235
aF12.04749554
aF11.92129552
aF11.73106376
aF11.92187054
aF11.93196528
aF11.91405678
aF11.7076438
aF11.75614654
asVUSDT-ETC
p261
(lp262
F523747.58654814
aF523775.02211716
aF523374.75587771
aF522006.3712438
aF522006.3712438
aF516774.76225326
aF516883.9196978
aF515550.85262336
aF516663.81355546
aF513796.50342404
aF513857.86269249
aF513813.38580124
aF521324.88330267
aF526031.12547318
aF526031.13018075
aF522768.22661772
aF523622.79469735
aF524155.48141397
aF489536.69452049
aF486817.57627427
aF493055.65130638
aF497349.37583453
aF514801.91854839
aF531453.04666072
aF537245.91189522
asVBTC-GCR
p263
(lp264
F2.93734421
aF2.9378942
aF4.57217555
aF4.52960036
aF4.54084346
aF4.54084346
aF4.54084346
aF4.54084346
aF4.53675367
aF4.53675367
aF4.5379514
aF4.5379514
aF4.5379514
aF4.55362804
aF4.55414354
aF4.57678014
aF4.57678014
aF4.57678014
aF4.57420937
aF4.63117134
aF4.59258471
aF4.80572313
aF4.80572313
aF4.82187398
aF4.82187398
asVBTC-XEL
p265
(lp266
F200.31810287
aF213.6902677
aF215.12436652
aF223.10002342
aF223.44143766
aF229.27185442
aF229.77893746
aF234.01150846
aF237.53920044
aF237.7942729
aF239.455489
aF240.8172685
aF241.34871746
aF235.10951579
aF235.1209102
aF241.57306436
aF244.01383553
aF243.9943576
aF245.14867249
aF242.52487381
aF243.97240518
aF244.91574693
aF245.16582129
aF244.64855364
aF244.23577232
asVBTC-XEM
p267
(lp268
F267.92934666
aF267.85965103
aF267.88688861
aF274.02559241
aF274.31552825
aF278.07193725
aF274.87681591
aF277.426539
aF278.9722898
aF279.07207827
aF277.6639907
aF278.7986493
aF277.28877272
aF276.84796746
aF276.89560189
aF279.82232299
aF281.2392512
aF273.58415178
aF265.64896521
aF262.58189085
aF262.32944483
aF260.05899738
aF255.29588824
aF256.1096347
aF258.81912843
asVBTC-NBT
p269
(lp270
F52.01657094
aF51.7742561
aF53.12603185
aF52.79642159
aF52.16742467
aF52.19228742
aF52.75231376
aF52.76320392
aF52.79837128
aF52.47075551
aF52.5079961
aF52.5079961
aF52.93729326
aF52.76913288
aF52.41094701
aF52.39648821
aF52.39648821
aF52.35878648
aF52.57015766
aF53.44604174
aF53.44604174
aF54.54735899
aF55.20222975
aF53.73948159
aF53.28063927
asVETH-FCT
p271
(lp272
F134.05084826
aF134.05084826
aF134.05084826
aF134.05084826
aF134.05084826
aF134.06819927
aF134.06819927
aF134.06819927
aF134.06819927
aF134.06819927
aF136.82429719
aF136.82429719
aF136.82429719
aF136.84923847
aF138.11803463
aF163.9461006
aF163.9461006
aF164.25018497
aF164.25018497
aF165.11583646
aF166.9549729
aF172.91583542
aF172.91583542
aF172.91583542
aF175.68746485
asVBTC-INFX
p273
(lp274
F602.16517156
aF603.26760033
aF602.85962899
aF608.83954845
aF613.13791476
aF612.10835024
aF604.97822802
aF597.45275137
aF596.99052443
aF590.24129991
aF553.72433171
aF516.44045022
aF496.05702742
aF480.84254183
aF475.61025295
aF471.71890061
aF462.68199731
aF444.00152867
aF431.82126383
aF419.92115632
aF413.84575109
aF407.34067228
aF403.89427661
aF400.54369824
aF399.23693983
asVUSDT-NEO
p275
(lp276
F3805538.28608923
aF3736864.8775359
aF3729275.43778473
aF3712292.3833497
aF3709729.07330486
aF3669631.98200596
aF3662035.4530233
aF3638817.43248542
aF3631229.39992829
aF3503847.08294211
aF3493739.58871945
aF3434814.65491232
aF3433432.54620543
aF3401800.23393563
aF3410937.99548165
aF3415434.88136728
aF3390896.04001659
aF3486065.37040748
aF3451273.26623314
aF3454811.17827319
aF3450734.96408393
aF3325091.55116131
aF3274051.07380411
aF3240055.71038982
aF3256147.26756787
asVBTC-HMQ
p277
(lp278
F23.96217058
aF23.66892721
aF23.66892721
aF23.05291964
aF23.07995978
aF23.07995978
aF23.10359136
aF23.10543227
aF23.38675021
aF22.61914421
aF22.61914421
aF22.53664514
aF22.53664514
aF22.52239254
aF22.46145455
aF22.53204137
aF22.0335764
aF22.0335764
aF21.91996175
aF21.91348224
aF21.9324422
aF21.92466325
aF21.91235552
aF22.95875204
aF22.96032412
asVBTC-SIB
p279
(lp280
F18.81898158
aF18.82611678
aF18.76208325
aF18.77405053
aF18.78637286
aF18.85308132
aF18.86597989
aF19.80567443
aF19.81556007
aF20.19722195
aF20.16447237
aF20.1484665
aF20.15246825
aF20.14370337
aF20.17722192
aF20.15922564
aF20.21398931
aF20.21398931
aF20.2825724
aF20.27803391
aF20.36762851
aF20.4652355
aF20.46362212
aF20.44800881
aF20.5481019
asVBTC-BLOCK
p281
(lp282
F56.95101483
aF56.96790472
aF56.99705975
aF57.00434347
aF57.11166506
aF56.99999875
aF55.77360024
aF55.53471305
aF55.5387637
aF55.17669236
aF54.07439321
aF54.12771623
aF54.67080303
aF51.05432376
aF51.14658372
aF51.18772865
aF51.95332903
aF52.12160128
aF51.63861061
aF51.75369613
aF52.46955466
aF60.02333317
aF60.55537418
aF61.4717431
aF61.86633299
asVBTC-FLDC
p283
(lp284
F10.2579029
aF10.32990766
aF10.3538304
aF10.36157608
aF10.36826419
aF10.36826419
aF10.36942251
aF10.4012585
aF10.4012585
aF10.42027189
aF10.43287726
aF10.49130651
aF10.58544964
aF10.61447612
aF10.61447612
aF10.62930429
aF10.63882492
aF10.62947968
aF10.87393964
aF10.87393964
aF10.87393964
aF10.84099944
aF10.84243698
aF10.84243698
aF10.84243698
asVBTC-LBC
p285
(lp286
F180.55742769
aF180.48552888
aF180.6378584
aF180.29042231
aF181.25414752
aF181.67449344
aF182.25448084
aF183.69464861
aF183.52616042
aF184.54210943
aF185.6971599
aF186.75558053
aF187.32252175
aF186.84052767
aF185.78190195
aF186.52759524
aF188.33357975
aF188.73106038
aF189.19160536
aF189.50005188
aF190.70197167
aF191.20363333
aF192.33996954
aF192.74893341
aF193.0273871
asVETH-MYST
p287
(lp288
F41.20648367
aF40.72903048
aF38.19307057
aF38.88421709
aF38.74741709
aF38.74741709
aF38.74741709
aF38.74741709
aF38.74741709
aF38.74741709
aF36.10915465
aF36.10915465
aF36.10915465
aF36.00092839
aF36.00092839
aF36.00092839
aF36.46678414
aF36.46678414
aF36.44924127
aF36.44924127
aF36.44924127
aF38.40340809
aF44.42360212
aF44.42360212
aF44.42360212
asVETH-TKN
p289
(lp290
F134.32618192
aF134.32618192
aF134.32618192
aF151.55047417
aF151.55047417
aF157.88184373
aF158.38294601
aF158.38294601
aF158.38294601
aF157.96860227
aF166.1022003
aF168.40819217
aF168.55826317
aF168.59445103
aF168.59445103
aF168.5949797
aF168.5949797
aF168.69641614
aF168.69641614
aF162.08698617
aF163.08448616
aF198.61580364
aF204.38413149
aF204.38413149
aF204.11768838
asVBTC-BAT
p291
(lp292
F253.29962425
aF253.66618917
aF255.22203564
aF254.87038938
aF265.95458554
aF268.29794856
aF267.52012016
aF266.3631906
aF268.06834713
aF268.6255031
aF269.64807082
aF274.79796548
aF275.51886463
aF277.60413904
aF277.82768106
aF281.42771251
aF281.52511688
aF282.8776095
aF283.60200027
aF284.5006915
aF288.03683381
aF290.76589241
aF291.10547624
aF290.91367782
aF290.30446018
asVBTC-BURST
p293
(lp294
F980.04185006
aF980.32359404
aF981.19661058
aF983.7151233
aF983.63509577
aF982.18185813
aF984.78890872
aF982.22400128
aF982.10747483
aF979.6949325
aF979.64178163
aF979.41932197
aF978.64522264
aF978.95685195
aF985.35104659
aF987.5950008
aF987.82582527
aF987.37526252
aF982.65819972
aF974.87912034
aF970.25441681
aF969.49704284
aF945.65781585
aF924.45843221
aF903.64593598
asVBTC-2GIVE
p295
(lp296
F7.5672616
aF7.48905695
aF7.48905695
aF6.99016592
aF6.99016592
aF6.95681586
aF6.95747439
aF6.81895659
aF6.82041095
aF6.84219774
aF6.84219774
aF6.8415936
aF6.80808251
aF6.80808251
aF6.7612066
aF6.75433542
aF6.62485917
aF6.60787345
aF6.54164713
aF6.54164713
aF6.30934852
aF6.0194901
aF6.00547473
aF6.00048724
aF6.00048724
asVBTC-GRC
p297
(lp298
F5.62975274
aF5.62975274
aF5.61656067
aF5.6210789
aF5.6210789
aF5.61997172
aF5.62904868
aF5.64039058
aF5.97527173
aF5.98233673
aF6.11701809
aF6.09537435
aF6.07393585
aF6.07393585
aF6.07393585
aF6.06015778
aF6.04435243
aF6.04435243
aF6.17127404
aF6.12990539
aF6.09636667
aF6.06743468
aF6.06743468
aF6.06743468
aF5.98744457
asVBTC-BAY
p299
(lp300
F14.44930728
aF14.45353198
aF16.11188797
aF16.11135226
aF16.11398499
aF16.11398499
aF16.07167513
aF16.07762869
aF16.07818892
aF16.15401935
aF15.58329018
aF15.58329018
aF15.57370441
aF15.48698768
aF15.42301221
aF15.42301221
aF15.38894905
aF14.88547379
aF14.82564679
aF14.60527608
aF14.60989091
aF14.26617325
aF14.26617325
aF13.7483894
aF13.73417529
asVBTC-NLG
p301
(lp302
F43.72137185
aF43.75197213
aF43.76321092
aF43.97342257
aF43.98332355
aF44.41356967
aF44.52062304
aF44.51346091
aF44.51528939
aF44.49443109
aF44.61181297
aF44.67473057
aF44.63827244
aF44.98654706
aF45.10705643
aF45.12186199
aF45.23473631
aF45.23795178
aF45.34465876
aF45.34109743
aF45.31805466
aF45.32564782
aF45.32564782
aF45.27607279
aF45.26285449
asVBTC-ANT
p303
(lp304
F52.04552292
aF52.08673445
aF53.08957956
aF53.11353565
aF52.9618082
aF52.96237572
aF53.24803017
aF51.86020293
aF50.59423224
aF50.69978746
aF50.70017259
aF51.16744931
aF51.21739434
aF51.13875032
aF51.22652326
aF51.13468645
aF51.13828422
aF51.17940458
aF50.88504838
aF50.26409507
aF50.50577921
aF50.63532102
aF51.34485672
aF52.82377559
aF52.82377559
asVBTC-TKN
p305
(lp306
F99.95941105
aF100.17199714
aF99.06083212
aF102.54029098
aF103.63987488
aF107.12952072
aF108.16439619
aF109.79337961
aF111.93203796
aF110.97160011
aF112.08154236
aF112.06213493
aF112.43983466
aF116.03199522
aF116.08199157
aF116.09926508
aF116.00183346
aF117.40749371
aF111.06332653
aF111.15399841
aF111.88101989
aF124.16308689
aF124.83608597
aF125.13158582
aF123.82729331
asVBTC-DMD
p307
(lp308
F45.09714625
aF45.49551095
aF45.5845567
aF45.5363541
aF45.55455911
aF46.03604317
aF46.03435787
aF46.01789041
aF44.65675853
aF44.76032578
aF44.76032578
aF43.79270997
aF43.69344677
aF44.06057433
aF44.04793971
aF44.01594223
aF44.01594223
aF43.60208839
aF43.34833856
aF42.4646136
aF37.7146664
aF37.7146664
aF39.59079702
aF39.59387058
aF39.59674601
asVBTC-TKS
p309
(lp310
F34.65386625
aF34.5305754
aF34.5305754
aF34.64918904
aF34.64918904
aF35.07051353
aF35.07204781
aF35.10002341
aF35.10002341
aF35.09902886
aF35.09902886
aF35.56143442
aF35.56143442
aF35.91456524
aF35.91456524
aF35.87244217
aF36.17357197
aF36.07736897
aF35.99513799
aF35.99513799
aF36.09638212
aF36.0551424
aF36.07467316
aF36.09491742
aF36.07857443
asVBTC-GRS
p311
(lp312
F62.42404773
aF63.69647281
aF70.99062997
aF72.4602695
aF72.60202627
aF72.73702004
aF72.76836152
aF73.05919442
aF73.19677717
aF74.09761538
aF75.18600791
aF76.21720817
aF76.24862995
aF76.4979662
aF76.68408977
aF77.41747304
aF78.53054366
aF73.69061417
aF72.14853169
aF85.23025614
aF95.46819492
aF99.50585151
aF101.12133014
aF103.93769043
aF107.17612684
asVUSDT-BCC
p313
(lp314
F1149759.211664
aF1151094.71022886
aF1140727.52450331
aF1142421.19654983
aF1142345.87897742
aF1145712.84534354
aF1151448.97204081
aF1151448.97204081
aF1149812.8379681
aF1142481.49548537
aF1138920.02009708
aF1143121.8724995
aF1158306.48909715
aF1178555.28963102
aF1217321.19405818
aF1199343.29449553
aF1189098.35473403
aF1180278.94907331
aF1180278.94907331
aF1130510.06401219
aF1133498.57661387
aF1149720.05918832
aF1087229.09263483
aF1084921.50123552
aF1095533.24501021
asVBTC-FCT
p315
(lp316
F94.54627088
aF94.82458505
aF93.62016636
aF98.98516069
aF97.82283499
aF97.66274818
aF98.282614
aF97.41659369
aF97.5373445
aF97.54042738
aF97.63551741
aF97.78631425
aF97.8552699
aF97.86084167
aF98.87972695
aF101.31010473
aF101.41205574
aF107.61116786
aF108.60197886
aF107.43244214
aF105.10684377
aF86.63980003
aF87.52426133
aF86.19984992
aF87.35211355
asVBTC-XDN
p317
(lp318
F13.17877601
aF13.20152444
aF13.27648234
aF13.27648234
aF13.27765037
aF13.39676689
aF13.725574
aF13.73583765
aF13.73635765
aF13.71980674
aF13.74374176
aF13.74374176
aF13.83792651
aF13.72666337
aF13.77474114
aF13.68004255
aF13.85986857
aF13.85986857
aF13.68551007
aF13.69280526
aF13.68218025
aF13.73474648
aF13.82911231
aF13.82911231
aF13.12413886
asVETH-LUN
p319
(lp320
F339.96844032
aF343.97860407
aF346.69943469
aF349.66558214
aF350.32502415
aF350.32502415
aF350.25357115
aF349.89828474
aF349.89828474
aF349.89828474
aF350.51946247
aF353.51749837
aF353.51749837
aF355.23378403
aF355.23378403
aF348.28334917
aF349.15050003
aF349.38755936
aF396.54366728
aF385.43699425
aF389.19952939
aF395.123494
aF395.14349399
aF389.79901845
aF389.79901845
asVBTC-QTUM
p321
(lp322
F4373.57034282
aF4385.95125032
aF4408.26484969
aF4399.57201458
aF4410.78796537
aF4487.37716007
aF4501.00697524
aF4503.19327843
aF4550.21329137
aF4574.60288163
aF4629.73927794
aF4645.09869414
aF4682.85786486
aF4685.55665444
aF4698.80111544
aF4740.85203598
aF4754.83952542
aF4765.93517795
aF4757.59751585
aF4752.1882596
aF4822.38689267
aF5084.38930143
aF5145.22362254
aF5201.43919326
aF5284.67631661
asVBTC-DOGE
p323
(lp324
F166.37505472
aF166.58636763
aF167.34232087
aF168.47929193
aF168.11665387
aF166.30213256
aF158.76993992
aF158.37524815
aF158.72667426
aF158.07101087
aF156.83753346
aF157.29071301
aF152.93931318
aF149.34213854
aF144.60461681
aF144.48701845
aF144.81979783
aF144.76310845
aF144.3585532
aF144.62887593
aF143.80570396
aF144.18035884
aF143.4060789
aF143.85066876
aF143.61234956
asVBTC-LTC
p325
(lp326
F1276.69095515
aF1280.01986441
aF1278.39013615
aF1283.8946901
aF1281.56117486
aF1283.80155082
aF1290.81275427
aF1299.7778139
aF1300.86407149
aF1299.0633969
aF1302.00098556
aF1303.96880218
aF1304.93424239
aF1296.73907779
aF1293.23375933
aF1295.78563899
aF1290.78841711
aF1290.21882598
aF1275.00266221
aF1266.16827073
aF1239.73000529
aF1246.87341465
aF1245.93693729
aF1247.91998578
aF1249.23361145
asVBTC-LMC
p327
(lp328
F143.04806506
aF143.72943996
aF143.2480493
aF142.87193596
aF143.20176961
aF144.29962031
aF144.11620261
aF143.24845928
aF141.07098477
aF140.63036093
aF141.08797343
aF141.3506998
aF140.89703848
aF140.16714588
aF139.21169924
aF137.83058184
aF140.20243065
aF137.63683786
aF136.95923848
aF135.85146267
aF136.76487915
aF137.97878213
aF138.51781216
aF138.28601495
aF138.33516458
asVBTC-BLITZ
p329
(lp330
F42.650908
aF42.61635274
aF42.61702723
aF43.07176334
aF43.39394163
aF43.95261625
aF43.95261625
aF43.95414184
aF43.91030928
aF43.89837036
aF44.08346713
aF44.71637126
aF44.74728539
aF44.74728539
aF44.48693482
aF44.60793506
aF44.64119719
aF44.52303143
aF44.50897244
aF44.51623806
aF44.49805086
aF45.03450493
aF45.04804951
aF47.25932544
aF47.28174225
asVBTC-GBYTE
p331
(lp332
F81.30232241
aF81.30287243
aF81.29818239
aF81.29818239
aF81.19023888
aF81.29611825
aF81.37137561
aF81.40337231
aF81.50034308
aF81.71797045
aF81.71413611
aF82.47016414
aF80.52300902
aF80.52300902
aF80.16246563
aF79.61546129
aF80.56150141
aF80.53645336
aF82.35423089
aF83.65218801
aF83.93204085
aF84.12335507
aF84.34956925
aF92.33282943
aF92.61412125
asVETH-XRP
p333
(lp334
F1810.38887381
aF1801.16981182
aF1806.64277526
aF1814.51484884
aF1814.51484884
aF1821.8334363
aF1830.09436247
aF1847.78138667
aF1840.62033985
aF1855.84780204
aF1817.1514064
aF1781.94195338
aF1778.4394955
aF1755.74056013
aF1747.19916115
aF1714.33250819
aF1708.77066119
aF1695.99640694
aF1688.09766602
aF1681.57445112
aF1685.83004054
aF1671.3124849
aF1895.90711424
aF1885.82985212
aF1840.73527717
asVETH-ANT
p335
(lp336
F147.78164439
aF147.82924175
aF147.60242317
aF147.60242317
aF145.21262048
aF144.71359685
aF144.71359685
aF142.36047211
aF123.05054209
aF123.05054209
aF123.05054209
aF123.05054209
aF116.97934955
aF116.97934955
aF116.05595943
aF116.05595943
aF116.05595943
aF115.86486793
aF113.22711723
aF113.22711723
aF115.62198021
aF111.85465415
aF114.28952225
aF116.94375945
aF115.75198443
asVETH-CRB
p337
(lp338
F8.94952833
aF8.94952833
aF9.19886646
aF9.19886646
aF8.09665221
aF8.09665221
aF8.09665221
aF8.05042786
aF8.04624672
aF8.04624672
aF8.29570256
aF8.65418958
aF8.86076563
aF8.86076563
aF8.86076563
aF8.86076563
aF8.86076563
aF8.86076563
aF8.86076563
aF8.81578714
aF8.81578714
aF8.81578714
aF8.8215711
aF8.8215711
aF8.8215711
asVBTC-STORJ
p339
(lp340
F116.38661587
aF117.52680716
aF118.48369691
aF119.43789897
aF120.82955258
aF122.34579924
aF123.56954783
aF124.32837667
aF126.23214909
aF126.69015307
aF126.67785539
aF124.80911967
aF125.64645373
aF126.84576604
aF128.40662543
aF128.3538987
aF129.53775096
aF130.86146856
aF130.72022332
aF130.15286125
aF130.49780733
aF131.24871343
aF132.13587665
aF131.84534336
aF132.22601367
asVUSDT-XRP
p341
(lp342
F1210609.79590867
aF1200629.96802848
aF1191780.94294099
aF1191823.79934971
aF1190133.50865657
aF1049524.35356693
aF1020776.60703407
aF1020776.60703407
aF1021803.03877171
aF1021809.03219951
aF976374.66887797
aF965778.21916147
aF962665.71655407
aF962424.25499622
aF961560.59451187
aF951694.58710055
aF949356.82537901
aF949202.36942001
aF949665.90861986
aF958695.39433338
aF970841.89464177
aF951768.91859465
aF823025.70548941
aF796630.39507001
aF794128.21454639
asVBTC-MEME
p343
(lp344
F4.60882051
aF4.60882051
aF4.61767512
aF4.76016458
aF4.76128385
aF4.76012
aF4.76012
aF4.76012
aF4.76012
aF4.76012
aF4.76012
aF4.76012
aF4.77388924
aF4.77489244
aF4.71792021
aF4.66080161
aF4.59767956
aF4.59767956
aF4.94282124
aF4.94282124
aF4.94282124
aF4.93318937
aF4.93318937
aF4.92379459
aF4.92379459
asVBTC-CFI
p345
(lp346
F25.51837373
aF26.33059883
aF26.79095505
aF28.53644141
aF29.20269935
aF29.20269935
aF29.39530698
aF29.42830982
aF29.7426297
aF29.69701276
aF29.72201275
aF29.7645073
aF29.94126147
aF30.37390555
aF30.41912757
aF30.53757493
aF30.53757493
aF30.38867071
aF30.69956664
aF30.69956664
aF30.79027697
aF31.18794607
aF31.04051254
aF31.02360978
aF31.3644368
asVBTC-XMR
p347
(lp348
F352.86518424
aF355.11999771
aF355.74149723
aF354.89035591
aF331.40672357
aF331.16408952
aF329.07205811
aF331.22643772
aF330.99994356
aF331.28431473
aF332.20146884
aF336.77795073
aF336.64762499
aF342.32780736
aF344.97598025
aF339.47630782
aF341.52287157
aF342.30837558
aF343.03243675
aF342.82762105
aF339.32119206
aF360.50649002
aF341.93333048
aF342.94077478
aF342.92943863
asVBTC-DGD
p349
(lp350
F63.53119822
aF63.34958513
aF63.36375954
aF63.11925217
aF63.8009032
aF64.42044021
aF63.8104303
aF63.52049766
aF62.95853286
aF61.79159606
aF61.54762411
aF60.95600001
aF60.92317665
aF60.63520408
aF60.27766135
aF59.92412854
aF59.88831448
aF59.88831448
aF59.25322535
aF59.86676184
aF59.86676184
aF58.96442526
aF58.96442526
aF57.71011278
aF57.71011278
asVBTC-NEOS
p351
(lp352
F31.54990479
aF31.72924679
aF31.85132103
aF31.85132103
aF31.81969702
aF31.82349659
aF31.8730621
aF31.89757794
aF32.30123774
aF32.61210479
aF32.01142469
aF31.82959372
aF31.82959372
aF31.61346457
aF31.71321455
aF31.71322461
aF31.71322461
aF31.88288147
aF31.60276201
aF31.60276201
aF31.78181831
aF31.78351265
aF32.04650839
aF32.05635098
aF32.0683752
asVBTC-QRL
p353
(lp354
F38.30064432
aF39.31831283
aF39.31831283
aF38.83146963
aF38.82399191
aF38.07222496
aF36.57638414
aF36.48742091
aF36.11632275
aF36.10888391
aF34.9163827
aF34.9163827
aF34.25660245
aF33.04630387
aF33.08344072
aF32.25186248
aF31.63363095
aF31.32986757
aF31.45407902
aF31.49008573
aF31.29418412
aF31.32648436
aF31.32854211
aF31.06070065
aF31.07080002
asVBTC-XAUR
p355
(lp356
F26.32178043
aF26.32280139
aF26.32280139
aF26.32390815
aF26.32390815
aF26.32390815
aF26.42813862
aF26.42813862
aF26.42909475
aF26.42909475
aF26.43019195
aF26.52314847
aF26.52314847
aF26.7023024
aF26.7023024
aF26.7023024
aF26.68754467
aF26.7785635
aF26.7785635
aF26.7785635
aF26.79528731
aF26.84973732
aF26.84973732
aF26.84973732
aF26.73287391
asVUSDT-XMR
p357
(lp358
F248200.51210298
aF248200.51210298
aF248281.09286814
aF248405.04602918
aF246719.60736897
aF246719.60736897
aF245720.92400667
aF245723.39284283
aF245631.4293038
aF245631.4293038
aF245776.91637901
aF246741.25172442
aF250666.99132415
aF256690.47605056
aF267934.78605083
aF268004.29694374
aF274005.63620105
aF275293.49324432
aF275202.04115515
aF273520.53871232
aF278296.5807449
aF285698.33973935
aF281949.64582887
aF278193.74608074
aF280720.77701659
asVBTC-BYC
p359
(lp360
F1.43315854
aF1.44023511
aF1.44023511
aF1.44023511
aF1.43730408
aF1.44113697
aF1.44113697
aF1.44113697
aF1.44858812
aF1.45133397
aF1.45133397
aF1.45184721
aF1.45843095
aF1.35547726
aF1.35547726
aF1.35547726
aF1.35547726
aF1.34619945
aF1.35018205
aF1.35018205
aF1.35018205
aF1.370231
aF1.37362026
aF1.37362026
aF1.37362026
asVETH-NMR
p361
(lp362
F79.76491747
aF79.76491747
aF79.76491747
aF79.76491747
aF79.76491747
aF80.5664052
aF80.5664052
aF80.5664052
aF93.59552385
aF93.59552385
aF93.20724722
aF93.63856415
aF93.90018656
aF94.93698335
aF94.93698335
aF94.93698335
aF95.99383311
aF95.99383311
aF96.54466949
aF96.54466949
aF96.54466949
aF90.49934352
aF92.98999311
aF105.72796671
aF130.70343481
asVBTC-STEEM
p363
(lp364
F112.97367609
aF113.10885578
aF112.55623139
aF112.58585097
aF112.46563395
aF112.65405212
aF116.77172748
aF118.9302573
aF118.70001988
aF118.4893429
aF119.09614155
aF119.60293063
aF119.84280338
aF118.19946064
aF118.99230448
aF119.3703617
aF119.55097499
aF119.49568941
aF119.67315946
aF119.78572282
aF119.80873993
aF120.27124054
aF120.47603961
aF120.63834604
aF120.2377719
asVUSDT-ZEC
p365
(lp366
F337368.66680842
aF332860.09119548
aF328286.66175997
aF328307.96175997
aF328212.06379855
aF328212.06379855
aF326916.70421821
aF317931.64684501
aF317931.41746988
aF318586.83016062
aF318634.71093367
aF320139.9558186
aF322081.56485018
aF322108.71676533
aF323647.69954532
aF323647.69954532
aF298402.66936314
aF298707.16681419
aF298707.16681419
aF291262.99978711
aF284603.2784994
aF284603.2784994
aF271480.75711856
aF268207.77372937
aF254523.4285701
asVBTC-IOC
p367
(lp368
F12.33620165
aF12.33620165
aF12.15047238
aF12.02261314
aF12.05078564
aF12.05078564
aF12.05078564
aF11.17827089
aF11.16973315
aF11.38321082
aF11.56176295
aF11.56887775
aF11.56887775
aF11.90743134
aF11.61376074
aF11.59349141
aF11.59749081
aF11.40005473
aF11.40005473
aF11.39685991
aF11.39617718
aF11.40111125
aF11.40111125
aF11.71189827
aF11.71189827
asVBTC-RBY
p369
(lp370
F3.53863593
aF3.53863593
aF3.53578663
aF3.53578663
aF3.53578663
aF3.53527791
aF3.53527791
aF3.53578345
aF3.53578345
aF3.53578345
aF3.53578345
aF3.53578345
aF3.53578345
aF3.53578345
aF3.53513257
aF3.5131389
aF3.5131389
aF3.49611462
aF3.49611462
aF3.49611462
aF3.49536741
aF3.49362787
aF3.65531446
aF3.73434846
aF3.6596749
asVBTC-XMG
p371
(lp372
F1.54927249
aF1.54927249
aF1.54927249
aF1.54004477
aF1.54004477
aF1.54004477
aF1.54004477
aF1.54004477
aF1.54004477
aF1.54004477
aF1.52346829
aF1.52346829
aF1.52201932
aF1.55667305
aF1.55667305
aF1.55717458
aF1.55717458
aF1.55667584
aF1.55297515
aF1.55297515
aF1.55297515
aF1.54549502
aF1.54549502
aF1.54549502
aF1.54510557
asVBTC-MUSIC
p373
(lp374
F45.19765111
aF45.21606235
aF45.22938604
aF45.19672963
aF45.260186
aF45.19869069
aF45.1587872
aF45.21003478
aF45.31620487
aF45.3195796
aF45.37695352
aF45.60390396
aF45.67198257
aF45.64798243
aF45.66273257
aF45.66338546
aF45.65566942
aF45.69459415
aF45.55879126
aF45.4541815
aF45.48141549
aF45.45681287
aF46.67129809
aF47.02639892
aF46.92177105
asVBTC-UBQ
p375
(lp376
F196.48298727
aF195.54430855
aF195.38979072
aF193.96344288
aF194.0477638
aF194.62473677
aF195.68067376
aF196.06396617
aF197.29054989
aF197.37998474
aF198.00810637
aF198.80967616
aF200.11949007
aF201.75688848
aF203.32588036
aF204.93474543
aF204.91689954
aF204.61570354
aF205.03820826
aF205.08685324
aF203.48001204
aF208.55104774
aF209.09417423
aF210.31926622
aF210.51115053
asVETH-BTS
p377
(lp378
F268.67909032
aF268.57436916
aF267.09804792
aF268.22829694
aF269.41711096
aF268.38122418
aF269.41039119
aF278.56489954
aF263.4538202
aF264.26825658
aF262.92518376
aF252.70942578
aF254.88393646
aF261.01539584
aF264.7284097
aF264.72890845
aF266.63690398
aF269.49698367
aF269.51128205
aF269.51128205
aF269.92818315
aF272.692728
aF264.53120994
aF264.53120994
aF261.86767724
asVETH-QRL
p379
(lp380
F52.06974757
aF52.06974757
aF52.06974757
aF51.29203817
aF51.29203817
aF51.29203817
aF51.29203817
aF51.29203817
aF50.57639318
aF50.57639318
aF50.57639318
aF50.57639318
aF50.57639318
aF50.57639318
aF50.57639318
aF50.57639318
aF50.10104315
aF50.10104315
aF50.10104315
aF50.10104315
aF50.10104315
aF50.10104315
aF50.10104315
aF50.10104315
aF50.10104315
asVBTC-SNRG
p381
(lp382
F5.87753015
aF5.87330921
aF5.87330921
aF5.85426074
aF5.56381455
aF5.60224043
aF5.60224043
aF5.63734354
aF5.6361558
aF5.6361558
aF5.94584909
aF5.94696801
aF5.94911353
aF6.45876293
aF6.46373577
aF6.46373577
aF6.47236566
aF5.92149036
aF5.83527318
aF5.56250685
aF5.56250685
aF5.37369978
aF5.56380756
aF5.39554111
aF5.41082654
asVBTC-INCNT
p383
(lp384
F6.72004251
aF6.75453425
aF6.75355875
aF6.75355875
aF6.70490382
aF6.79505125
aF6.78996955
aF6.78996955
aF5.97448631
aF5.98235312
aF5.98235312
aF5.98235312
aF5.50530858
aF5.50530858
aF5.47292042
aF5.53328859
aF5.46221119
aF5.46221119
aF5.4610637
aF5.24192213
aF5.23286198
aF5.23286198
aF5.41944954
aF5.41944954
aF5.41944954
asVBTC-GLD
p385
(lp386
F16.09172169
aF16.14639935
aF16.13424601
aF16.18799387
aF16.16853842
aF15.96118272
aF15.2646455
aF15.32787735
aF15.77831934
aF15.77869452
aF15.78446209
aF15.80346364
aF15.89109693
aF15.91371334
aF15.89834712
aF15.84144903
aF14.78914358
aF14.68801958
aF14.57580553
aF14.33359609
aF14.37589298
aF15.17023493
aF15.27684817
aF15.13067195
aF14.96624667
asVBTC-ION
p387
(lp388
F49.41218769
aF49.35052115
aF49.35383618
aF49.32426882
aF48.32408851
aF48.64839014
aF48.77438988
aF49.33135364
aF49.29185989
aF48.98891979
aF49.56209956
aF49.84566182
aF48.01035796
aF47.71527113
aF47.46027412
aF48.12634217
aF47.85270349
aF47.89130831
aF47.78292817
aF47.87600991
aF47.80447059
aF48.07339835
aF48.30470439
aF49.13181405
aF49.13739032
asVBTC-KORE
p389
(lp390
F22.5507417
aF22.55129882
aF22.54679443
aF22.18086636
aF22.14437804
aF22.14437804
aF22.14718211
aF22.17430303
aF22.47929969
aF22.4838492
aF22.51493818
aF20.29218912
aF20.16556414
aF19.4840105
aF19.43301223
aF19.41054892
aF18.88775376
aF18.97978574
aF18.7410375
aF18.52997132
aF18.21204691
aF18.21395803
aF19.1762367
aF19.32028616
aF19.32028616
asVBTC-PTOY
p391
(lp392
F130.99223708
aF131.43035369
aF132.69302157
aF133.02472999
aF133.20131688
aF133.36338537
aF133.49465237
aF133.62172296
aF134.23401212
aF134.1935322
aF134.23864011
aF134.11567842
aF134.13566508
aF134.55901304
aF133.98126854
aF133.4044386
aF133.51183593
aF134.77749427
aF135.67759655
aF135.60812941
aF135.69899435
aF139.2563866
aF138.71704221
aF139.4265075
aF139.4265075
asVBTC-SPR
p393
(lp394
F15.75592399
aF15.75592399
aF15.75592399
aF15.50855318
aF15.5094533
aF15.46033316
aF15.40557008
aF15.40607298
aF15.40607298
aF15.40607298
aF15.40690318
aF15.40561072
aF15.8031093
aF15.8031093
aF15.8031093
aF15.87464555
aF15.80982634
aF15.80982634
aF15.80982634
aF15.79616864
aF15.80400503
aF15.80400503
aF15.83400502
aF16.67459235
aF16.68126141
asVBTC-CURE
p395
(lp396
F27.65477813
aF27.65477813
aF27.68404635
aF27.68404635
aF27.9375133
aF27.9375133
aF27.97636653
aF27.97166987
aF27.97464265
aF27.97464265
aF27.97464265
aF27.9236169
aF27.9236169
aF27.92212109
aF27.9190556
aF27.9190556
aF27.92161423
aF27.92213423
aF27.82827312
aF27.82827312
aF27.81902265
aF27.8294761
aF27.84431494
aF27.84431494
aF27.84431494
asVBTC-DCR
p397
(lp398
F106.83803583
aF107.08606551
aF107.38948778
aF107.71781894
aF109.8393696
aF110.1550439
aF111.00294341
aF110.49531694
aF107.05177512
aF106.91173398
aF105.85947418
aF107.07326785
aF105.98689112
aF103.64164879
aF103.31041632
aF102.60457451
aF102.60501066
aF103.85367155
aF111.13315299
aF111.13263348
aF114.26488694
aF118.78131334
aF119.40548671
aF119.47032508
aF119.38033412
asVBTC-DCT
p399
(lp400
F76.19964828
aF76.02512792
aF76.02512792
aF75.45782613
aF75.4697813
aF75.82137794
aF74.93713423
aF72.73333744
aF72.36715978
aF72.20266951
aF72.22438349
aF71.97557172
aF72.13794947
aF72.26279054
aF72.26279054
aF71.98806924
aF72.12169402
aF71.61989009
aF71.16019059
aF71.505089
aF71.82039383
aF71.72506862
aF72.75637535
aF72.56050227
aF73.44688039
asVBTC-KMD
p401
(lp402
F1791.14244487
aF1808.70530641
aF1818.49800363
aF1821.14051535
aF1825.59103296
aF1835.07256619
aF1842.98484599
aF1841.21378435
aF1840.49625761
aF1846.81888952
aF1844.42692646
aF1821.35564879
aF1781.49467574
aF1783.97447137
aF1785.6074663
aF1789.27527909
aF1785.95518593
aF1780.88570359
aF1778.60305914
aF1781.35928897
aF1789.52911596
aF1817.47487217
aF1834.33638872
aF1848.06399817
aF1846.86777285
asVBTC-BSD
p403
(lp404
F3.22873196
aF3.2228303
aF3.20773588
aF3.20773588
aF3.33950381
aF3.33950381
aF3.36321654
aF3.38103782
aF3.37348193
aF3.32745481
aF3.32804728
aF3.32804728
aF3.27248895
aF3.26565275
aF3.26565275
aF3.23998095
aF3.20249936
aF3.20902532
aF3.20902532
aF3.19891582
aF3.38020887
aF3.38020887
aF3.38186683
aF3.12879684
aF2.87979087
asVUSDT-DASH
p405
(lp406
F447051.11544836
aF447059.74471328
aF447059.74471328
aF447051.85722623
aF447001.47779546
aF447001.47779546
aF445990.20983911
aF445990.20983911
aF445990.20983911
aF446080.67332853
aF444526.38005369
aF444560.38915096
aF445156.00820386
aF449716.48729078
aF449134.72177742
aF448025.30697534
aF448266.57171299
aF448266.57171299
aF448266.57171299
aF448461.94693993
aF448519.83046064
aF424802.64728161
aF403218.55509514
aF403128.11034423
aF364658.28377889
asVBTC-FAIR
p407
(lp408
F2.81197947
aF2.81197947
aF2.81197947
aF2.85559
aF2.85559
aF2.85559
aF3.16166427
aF3.15934514
aF3.15934514
aF3.15934514
aF3.16515154
aF3.16515154
aF3.16515154
aF3.16515154
aF3.16076793
aF3.16076793
aF3.10681301
aF3.10628798
aF3.10628798
aF3.10334755
aF3.1055386
aF3.20901518
aF3.29299049
aF3.28599717
aF3.2592217
asVETH-DASH
p409
(lp410
F830.49967267
aF820.46459267
aF820.46459267
aF820.46459267
aF819.16684125
aF819.26608208
aF819.26608208
aF819.38121379
aF820.73704981
aF821.07312565
aF824.59661054
aF826.60794149
aF820.05835646
aF820.1824501
aF820.18114372
aF820.18114372
aF820.18114372
aF820.18114372
aF820.18114372
aF824.42748815
aF824.42748815
aF824.80981342
aF787.37533303
aF786.01463163
aF773.83000017
asVBTC-QWARK
p411
(lp412
F27.69067235
aF27.23468282
aF27.51103789
aF27.56474859
aF27.64174435
aF27.69876726
aF27.50817652
aF27.52382957
aF27.82934139
aF28.60918505
aF28.5633195
aF28.36385257
aF28.45877703
aF28.54627155
aF28.65034242
aF28.85997429
aF28.86119979
aF29.84129925
aF29.85728891
aF29.71598769
aF29.75148797
aF29.68993289
aF29.73635619
aF29.76026935
aF30.36646899
asVBTC-EMC
p413
(lp414
F16.99547972
aF16.99547972
aF16.95685582
aF16.9938484
aF17.0014434
aF16.90666425
aF16.89873216
aF16.93639222
aF16.9250327
aF17.0007366
aF17.08637698
aF17.01203671
aF17.01203671
aF17.68206831
aF17.67501863
aF17.67261093
aF17.43522183
aF17.43522183
aF17.5289787
aF17.46228648
aF17.46228648
aF17.31350649
aF17.31484353
aF16.83708278
aF16.83977598
asVBTC-LSK
p415
(lp416
F835.41481348
aF839.10625809
aF842.41269192
aF842.02295916
aF839.87941779
aF844.0331255
aF850.50330129
aF852.79159464
aF859.17638502
aF857.2613758
aF860.39828994
aF862.17137856
aF864.65821972
aF862.99507808
aF861.19054815
aF869.4967952
aF870.64677367
aF873.65884783
aF910.61998914
aF909.88600113
aF910.02446076
aF930.3426836
aF938.35353415
aF942.77157621
aF942.68957358
asVBTC-GAM
p417
(lp418
F2.94092782
aF2.94092782
aF2.94092782
aF2.94092782
aF2.94092782
aF2.94092782
aF2.94092782
aF2.94092782
aF2.94092782
aF2.94092782
aF2.94092782
aF2.41538218
aF1.99676674
aF1.99767503
aF1.99767503
aF2.00149193
aF1.99963868
aF1.99963868
aF1.99963868
aF1.99600383
aF1.99146525
aF1.99146525
aF1.96729692
aF1.96729692
aF2.08228383
asVBTC-PART
p419
(lp420
F31.18517538
aF31.18767537
aF31.18767537
aF31.40010986
aF31.40242726
aF31.36822539
aF31.40876409
aF31.40876409
aF31.38191437
aF31.40251437
aF31.40251437
aF31.40251437
aF31.38987556
aF31.41344277
aF31.41344277
aF31.28634995
aF31.28634995
aF31.20821346
aF31.21130367
aF31.21235201
aF31.22283486
aF30.99891524
aF31.05003599
aF31.05003599
aF30.97202465
asVBTC-APX
p421
(lp422
F6.52723955
aF6.52788633
aF6.52788633
aF6.52788633
aF6.52196988
aF6.54166768
aF6.54166768
aF6.54166768
aF6.51338425
aF6.80556723
aF6.80653788
aF6.80653788
aF6.80653788
aF6.85998713
aF6.78205237
aF7.52212496
aF7.50472169
aF7.50472169
aF7.38422155
aF7.38532154
aF7.388854
aF7.19627926
aF7.19627926
aF7.19627926
aF9.28343956
asVETH-MTL
p423
(lp424
F261.96946318
aF291.87804311
aF291.87804311
aF290.22493412
aF290.3897228
aF290.49337188
aF296.53545653
aF294.50944472
aF302.95693801
aF302.95693801
aF305.07625301
aF310.51091992
aF311.41020317
aF309.72191842
aF309.58129478
aF309.58129478
aF309.58129478
aF309.11774968
aF312.00924187
aF317.94690388
aF324.35635487
aF324.35635487
aF324.35635487
aF325.33150922
aF325.39813078
asVBTC-BCY
p425
(lp426
F4.38654625
aF4.39138236
aF4.39138236
aF4.39138236
aF4.3904354
aF4.3904354
aF4.33256704
aF4.33330651
aF4.33330651
aF4.35140424
aF4.36435835
aF4.37275855
aF4.37275855
aF4.37121741
aF4.34486014
aF4.34486014
aF4.83745384
aF4.81434447
aF4.81434447
aF4.79328278
aF4.7985182
aF4.7985182
aF4.79400654
aF4.7884333
aF4.95463689
asVBTC-EXCL
p427
(lp428
F17.79699592
aF17.79699592
aF17.71251345
aF17.75242215
aF17.75242215
aF17.79623106
aF17.79623106
aF17.79623106
aF17.85975106
aF17.95487967
aF18.00804247
aF18.00804247
aF18.00654248
aF17.85666126
aF17.77165584
aF17.38083448
aF17.38189892
aF17.33843873
aF18.90404034
aF19.08396156
aF19.159644
aF19.19659413
aF19.21829397
aF19.23071106
aF19.25445755
asVBTC-SPHR
p429
(lp430
F37.18943156
aF37.17149184
aF37.17149184
aF37.17149184
aF41.46927122
aF42.15850388
aF42.15850388
aF43.12084486
aF44.83809805
aF44.83297991
aF44.83297991
aF44.74128026
aF44.31491241
aF44.23521145
aF44.22618026
aF44.22618026
aF44.25275699
aF44.25275699
aF44.25275699
aF44.25331809
aF44.25331809
aF44.32128063
aF44.32128063
aF44.32128063
aF44.32128063
asVBTC-PAY
p431
(lp432
F676.05489275
aF674.61535697
aF673.70015972
aF673.00918347
aF663.83773563
aF664.05720793
aF662.24341331
aF662.91573926
aF659.90366439
aF659.688297
aF655.016939
aF657.68189535
aF666.56843403
aF666.3531383
aF666.96123379
aF672.41543674
aF675.65671761
aF677.75733326
aF678.32546811
aF670.72295266
aF674.75578395
aF698.58568206
aF700.1492124
aF717.56388368
aF725.92400266
asVBTC-FTC
p433
(lp434
F31.42579276
aF31.4574363
aF31.60956517
aF31.65923964
aF31.68488158
aF31.85600045
aF31.86231808
aF31.98071917
aF31.98157436
aF32.26672359
aF32.68370079
aF32.81060341
aF32.85810028
aF32.83214893
aF32.80119947
aF32.80119947
aF32.84622892
aF32.8490747
aF32.85133934
aF32.80705633
aF32.86837993
aF32.89191371
aF33.0447802
aF33.09357474
aF33.29421143
asVBTC-VRM
p435
(lp436
F8.0892157
aF8.26366319
aF8.26366319
aF8.20161336
aF8.27632388
aF8.27632388
aF8.28153396
aF8.28153396
aF8.27656716
aF8.50304234
aF8.50304234
aF8.60592647
aF8.60592647
aF8.60642647
aF8.61196766
aF8.61196766
aF8.59219467
aF8.59219467
aF8.45480165
aF8.44994025
aF8.40004986
aF8.37712378
aF8.37712378
aF8.39078428
aF11.82027847
asVBTC-BITB
p437
(lp438
F16.08538698
aF16.12293409
aF16.12062129
aF16.13532004
aF16.14671
aF16.57251048
aF16.65194478
aF16.65992482
aF16.64675782
aF16.94685933
aF16.96093146
aF16.96093146
aF16.95850427
aF16.95971827
aF16.96024485
aF17.23169466
aF17.00041936
aF17.00041936
aF17.5251766
aF17.52938138
aF17.54012901
aF17.64108952
aF17.62395631
aF17.62395631
aF17.62431349
asVBTC-BTS
p439
(lp440
F1025.56260168
aF1029.67813634
aF1034.36195552
aF1038.66395684
aF1045.41027886
aF1050.70606447
aF1055.54812459
aF1067.65512511
aF1074.87620408
aF1079.15854016
aF1083.21908076
aF1088.35405508
aF1091.31903191
aF1098.29775311
aF1109.02183251
aF1119.51503483
aF1132.08313296
aF1140.75863823
aF1147.43613578
aF1149.01761281
aF1161.31601312
aF1177.44683294
aF1179.92718043
aF1183.26656403
aF1188.53575311
asVETH-ZEC
p441
(lp442
F555.54535605
aF555.54535605
aF555.54535605
aF525.52646463
aF540.51125121
aF540.5277084
aF540.5277084
aF540.60063955
aF544.00161449
aF544.00161449
aF535.96861923
aF535.96861923
aF542.31173556
aF542.66651487
aF542.66651487
aF540.11516997
aF535.46877649
aF528.9688166
aF464.54376286
aF464.56876891
aF484.47495095
aF499.27014994
aF500.32676149
aF503.10095904
aF557.00166438
asVETH-BNT
p443
(lp444
F201.46864737
aF198.24769353
aF198.24769353
aF198.24719354
aF198.24569357
aF198.24569357
aF198.24519358
aF197.49129018
aF197.49129018
aF197.49129018
aF197.49129018
aF197.49129018
aF196.89764625
aF196.70263751
aF196.70263751
aF196.70263751
aF196.70263751
aF195.997483
aF195.997483
aF195.997483
aF195.66988523
aF201.73935348
aF201.94035888
aF202.17308398
aF197.89317848
asVBTC-XST
p445
(lp446
F5.27159978
aF5.37723259
aF5.44750408
aF5.48248201
aF5.49648103
aF5.50827595
aF5.50878589
aF5.52901684
aF5.52983484
aF5.45054204
aF5.45054204
aF5.40204674
aF5.40872941
aF5.40923813
aF5.40979725
aF5.43131361
aF5.43131361
aF5.43131361
aF5.43131361
aF5.4412858
aF5.44188915
aF5.44239907
aF5.4431822
aF5.4431822
aF5.44640939
asVBTC-BCC
p447
(lp448
F1310.79259607
aF1308.36110129
aF1309.87903157
aF1313.78485379
aF1310.21719405
aF1312.63520984
aF1311.12861642
aF1313.67858813
aF1310.95673306
aF1306.45988685
aF1313.44924664
aF1374.06155224
aF1419.35046793
aF1428.22722147
aF1431.06725843
aF1429.18402951
aF1423.15185309
aF1418.1489496
aF1409.37614249
aF1407.44501143
aF1398.13783774
aF1382.63127771
aF1353.74304285
aF1327.74933018
aF1311.60050735
asVBTC-REP
p449
(lp450
F39.35326776
aF39.38961797
aF39.43428818
aF39.40246619
aF39.40246619
aF39.39548579
aF39.39548579
aF39.56720667
aF39.60355316
aF39.61570193
aF39.55508359
aF39.63103907
aF40.28738949
aF40.28738949
aF40.28738949
aF40.28883815
aF40.42793989
aF27.91147233
aF27.91085688
aF27.88836536
aF28.1102537
aF27.73101197
aF27.72425384
aF28.7610662
aF28.56073311
asVBTC-BTCD
p451
(lp452
F24.51797064
aF24.46601325
aF24.46601325
aF24.47063329
aF24.47580599
aF24.5151933
aF24.5151933
aF24.54156127
aF24.71988215
aF24.77750082
aF24.40517509
aF24.33671845
aF24.0006583
aF26.02900821
aF25.61248982
aF25.30766714
aF25.30766714
aF24.44744344
aF26.04743334
aF26.07178815
aF26.10642408
aF25.6842662
aF25.46644005
aF25.67318881
aF25.67318881
asVBTC-BTA
p453
(lp454
F119.71972081
aF119.05298481
aF117.19857441
aF116.80002745
aF116.79778129
aF108.4008305
aF102.61238037
aF102.61260732
aF97.1161664
aF95.15363587
aF93.73639266
aF92.38105443
aF91.87035506
aF87.6150432
aF86.20189431
aF86.14957795
aF81.70036521
aF81.35745268
aF81.06381612
aF81.77733497
aF81.51346944
aF80.36792623
aF80.33745384
aF78.87853915
aF77.97933949
asVETH-RLC
p455
(lp456
F64.84147609
aF64.84147609
aF64.84147609
aF65.35976721
aF65.35976721
aF65.35976721
aF65.35976721
aF65.35976721
aF65.43073758
aF65.43073758
aF65.43073758
aF65.43073758
aF68.07451976
aF70.54458136
aF70.54458136
aF72.17532279
aF72.17532279
aF72.17532279
aF72.17532279
aF72.17532279
aF72.0103228
aF72.0103228
aF72.0103228
aF72.0103228
aF72.0103228
asVBTC-CRB
p457
(lp458
F11.28031972
aF11.28224134
aF11.53285039
aF11.53285039
aF11.47975526
aF11.47975526
aF11.52497142
aF11.57800688
aF11.57800688
aF11.62571012
aF11.62571012
aF11.69055294
aF11.75733414
aF11.75582214
aF11.77549577
aF11.77549577
aF11.78874837
aF11.7962651
aF11.81170194
aF11.85958572
aF11.85991786
aF11.85991786
aF11.85889775
aF11.85889775
aF11.85997054
asVBTC-RLC
p459
(lp460
F57.56087502
aF56.99559657
aF57.05460123
aF71.2715566
aF71.51746889
aF72.23328915
aF73.16998339
aF73.24603889
aF75.28907419
aF75.36736346
aF75.6434436
aF76.05780385
aF76.82139991
aF77.1419997
aF77.14886322
aF77.46976828
aF78.09495614
aF78.11731395
aF78.83051197
aF78.99581742
aF79.02272037
aF81.89717526
aF81.30084207
aF81.94057294
aF82.20273715
asVBTC-ERC
p461
(lp462
F154.71321325
aF154.88522861
aF155.05238577
aF155.56970321
aF156.10999758
aF156.57883427
aF157.02906618
aF157.51318338
aF157.56954771
aF159.22870185
aF158.87124192
aF159.07329869
aF159.26865753
aF159.42274159
aF161.14776653
aF162.14587741
aF162.06042982
aF163.24711467
aF163.44479981
aF165.05334917
aF165.79504776
aF166.06216425
aF166.4364677
aF166.22632493
aF166.26727449
asVBTC-BRK
p463
(lp464
F2.0501816
aF2.0501816
aF2.0501816
aF2.0501816
aF2.0501816
aF2.0501816
aF2.18595203
aF2.18595203
aF2.34211026
aF2.34211026
aF2.34211026
aF2.33856626
aF2.23921376
aF2.23921376
aF2.2514319
aF2.2527519
aF2.2544279
aF2.15697765
aF2.15697765
aF2.14131479
aF2.14131479
aF2.14131479
aF2.2270095
aF2.22146713
aF2.23385882
asVBTC-NAV
p465
(lp466
F402.27411296
aF405.66958354
aF406.41910064
aF406.90055324
aF407.95051259
aF408.70160817
aF403.48940879
aF402.38760448
aF404.2490476
aF409.83293267
aF410.60276135
aF406.06100781
aF403.36769424
aF402.5887983
aF390.65352128
aF389.93878426
aF379.74673802
aF377.18461757
aF377.3860187
aF376.23022903
aF373.3205833
aF377.61285931
aF383.28685142
aF384.554887
aF384.46228263
asVBTC-PKB
p467
(lp468
F33.1687723
aF33.1687723
aF33.40701615
aF33.40701615
aF33.61771094
aF33.63093359
aF33.64293358
aF33.65826532
aF33.74273444
aF33.74273444
aF33.74273444
aF33.76044006
aF33.76044006
aF33.76044006
aF33.93547208
aF33.86734256
aF33.86734256
aF33.87782204
aF33.80077034
aF33.80077034
aF33.85695802
aF33.85695802
aF33.87161114
aF33.8735129
aF33.88068005
asVBTC-TRIG
p469
(lp470
F919.24076764
aF920.26098638
aF922.61760086
aF923.06777181
aF928.55871238
aF933.09968263
aF939.49893479
aF942.01661503
aF946.01697503
aF947.85905314
aF950.08370772
aF955.75069257
aF958.20040055
aF965.35531542
aF965.36952923
aF971.31470021
aF970.07785171
aF983.98468339
aF1006.36533922
aF1041.4483444
aF1062.88566258
aF1083.17567366
aF1088.78699869
aF1088.81105031
aF1099.09781863
asVETH-REP
p471
(lp472
F44.2943966
aF44.2943966
aF44.2943966
aF44.2943966
aF44.2943966
aF44.77038075
aF44.77038075
aF51.2572681
aF51.2572681
aF51.2572681
aF51.2572681
aF52.5263008
aF52.5263008
aF52.5263008
aF52.5263008
aF52.5263008
aF52.5583399
aF52.5583399
aF49.90850197
aF49.16558061
aF49.16558061
aF49.16558061
aF47.96989028
aF47.96989028
aF52.24862428
asVBTC-OMG
p473
(lp474
F3019.61905747
aF3036.24495444
aF3052.10392984
aF3054.2632864
aF3080.24346901
aF3079.84383477
aF3070.94282941
aF3075.73182856
aF3080.6118279
aF3069.32715162
aF3079.56501557
aF3093.20186814
aF3213.50964704
aF3251.63522813
aF3273.8742374
aF3304.61422201
aF3333.79245443
aF3318.21716312
aF3287.26416106
aF3299.19740238
aF4022.2475827
aF5410.06277997
aF6432.8824807
aF6751.31658633
aF7157.78460991
asVBTC-GBG
p475
(lp476
F28.82819031
aF28.82874749
aF28.82874749
aF28.82874749
aF28.87433684
aF28.93317765
aF28.93839845
aF29.01538398
aF29.08667234
aF29.10340095
aF29.10340095
aF29.12183044
aF29.08877551
aF29.0903998
aF29.0903998
aF29.09869697
aF29.12023322
aF29.14671819
aF29.15012375
aF29.03650763
aF29.05810763
aF29.06110762
aF29.06110762
aF29.06110762
aF29.07955038
asVBTC-XZC
p477
(lp478
F80.31982464
aF80.37315778
aF81.84647063
aF82.07219148
aF82.09973009
aF82.65853642
aF79.52513866
aF79.22845524
aF80.99117736
aF81.34016742
aF81.93878993
aF81.6211871
aF81.48813354
aF81.48813354
aF80.81432955
aF83.13191393
aF83.13182434
aF83.22926226
aF82.75309437
aF82.77289517
aF86.72465912
aF89.01911351
aF89.21243091
aF89.39703406
aF89.88498991
asVBTC-BRX
p479
(lp480
F1.80293572
aF1.80293572
aF2.03912912
aF2.03912912
aF2.03912912
aF2.03912912
aF2.03912912
aF2.03912912
aF2.06521819
aF2.06521819
aF2.17305129
aF2.16680629
aF2.16680629
aF2.16680629
aF2.16680629
aF2.16680629
aF2.19067201
aF2.19067201
aF2.19067201
aF2.19067201
aF2.18528552
aF2.18528552
aF2.18528552
aF2.18528552
aF2.18528552
asVBTC-SYS
p481
(lp482
F1710.03895314
aF1737.8647836
aF1758.66827705
aF1767.13765117
aF1798.49694415
aF1817.16601403
aF1847.34398689
aF1866.68442921
aF1885.07212693
aF1889.07045635
aF1900.35540476
aF1913.81081848
aF1925.36093806
aF1932.57731902
aF1944.33819915
aF1947.02838737
aF1956.534797
aF1961.17737631
aF1968.74758886
aF1969.28016566
aF1979.93676582
aF2026.93696021
aF2045.45718676
aF2046.44920798
aF2051.22427786
asVBTC-CRW
p483
(lp484
F31.2131212
aF34.87575328
aF34.92768499
aF39.92436356
aF39.87488315
aF39.95102895
aF40.24984659
aF40.20596418
aF40.98669914
aF41.53082112
aF41.53356528
aF41.52870762
aF41.82773578
aF42.30839552
aF42.22750376
aF42.29809716
aF42.31323834
aF42.31323834
aF41.9534243
aF41.9684395
aF41.9684395
aF41.9684395
aF41.71546442
aF42.12774059
aF42.1423867
asVBTC-RDD
p485
(lp486
F190.41864856
aF191.44441166
aF191.73862226
aF191.85205017
aF190.9086516
aF191.299556
aF191.13439604
aF191.60764999
aF192.25857429
aF192.24780487
aF191.81873163
aF192.36125769
aF192.05747535
aF192.14909899
aF192.83328444
aF195.57847823
aF205.82486567
aF232.79251632
aF233.14830665
aF231.53570934
aF236.90628743
aF236.97262849
aF236.63126749
aF235.90743287
aF236.05745961
asVBTC-GAME
p487
(lp488
F274.68094265
aF274.96354537
aF275.43754484
aF274.74289555
aF274.74442098
aF276.99265922
aF275.35849036
aF276.54858206
aF268.18537457
aF251.92952502
aF246.02876971
aF244.43780408
aF244.15147302
aF245.09002313
aF244.36123413
aF244.96781888
aF244.1799751
aF243.81573084
aF243.22930078
aF242.50070702
aF246.50207763
aF246.7241121
aF246.84087161
aF246.79358895
aF246.56492279
asVETH-GUP
p489
(lp490
F40.1649092
aF40.1649092
aF40.1649092
aF40.1649092
aF40.1649092
aF40.1649092
aF40.1649092
aF40.1649092
aF40.1649092
aF40.1649092
aF38.14579274
aF38.14579274
aF37.9709915
aF37.53037599
aF37.53037599
aF37.40694253
aF37.40694253
aF37.40694253
aF37.40694253
aF37.11799693
aF34.32066884
aF34.32066884
aF34.22260589
aF34.22260589
aF34.22260589
asVBTC-1ST
p491
(lp492
F71.38948122
aF71.55536245
aF71.67022192
aF72.01568208
aF72.01568208
aF72.48060564
aF72.64213316
aF72.61064377
aF71.60878512
aF71.80358008
aF71.16287595
aF71.53561846
aF71.84655054
aF72.30430211
aF72.40458359
aF73.89781943
aF74.35278355
aF75.58538719
aF76.98107245
aF79.58850757
aF80.9949592
aF81.64293023
aF82.38572087
aF83.56739743
aF87.55840844
asVUSDT-ETH
p493
(lp494
F6649255.45384364
aF6556649.06411826
aF6510198.84524994
aF6492092.58783581
aF6483949.92528361
aF6388755.71525062
aF6381088.1916176
aF6374606.59421339
aF6364643.94042155
aF6358010.38893112
aF6293648.80585576
aF6378609.2592695
aF6390581.18545742
aF6350744.95165971
aF6345449.29868082
aF6274611.19226895
aF6173826.8088649
aF5935782.38627739
aF5882742.06399349
aF5800450.70727795
aF5819755.0722783
aF5605405.95140687
aF5664002.2940751
aF5752224.53757332
aF5765599.06021732
asVBTC-VTR
p495
(lp496
F51.91921908
aF51.9198251
aF51.92088791
aF51.93968678
aF51.96238035
aF52.12270026
aF52.25141985
aF52.45559291
aF52.36577005
aF52.37476228
aF52.38197631
aF52.38651545
aF52.38645267
aF52.38753451
aF52.3913532
aF52.32327044
aF52.33369367
aF52.53359641
aF52.71029597
aF52.71715641
aF52.71823748
aF52.79084896
aF52.87839091
aF55.31443749
aF57.15959895
asVBTC-EMC2
p497
(lp498
F5.94818606
aF5.94818606
aF5.94226129
aF5.93986871
aF5.93986871
aF5.91068326
aF5.91068326
aF5.90368671
aF5.90368671
aF5.90368671
aF5.90368671
aF5.77784088
aF5.78169559
aF5.78169559
aF5.65165098
aF5.65046558
aF5.65046558
aF5.65240227
aF5.64879192
aF5.59599836
aF6.45045362
aF6.42753601
aF6.40744544
aF6.40744544
aF6.41444828
asVBTC-XCP
p499
(lp500
F79.87314441
aF80.43181205
aF81.04905118
aF81.11566202
aF81.0653223
aF81.0653223
aF80.4760077
aF80.48505038
aF80.46788327
aF80.70953925
aF80.19159762
aF80.31787494
aF80.27148263
aF80.26531349
aF80.70403527
aF80.78746846
aF80.87526499
aF80.88895682
aF81.18051266
aF81.34378292
aF81.67530825
aF83.43420383
aF83.94036719
aF85.88681253
aF87.24426209
asVBTC-SWIFT
p501
(lp502
F5.22665348
aF5.254104
aF5.2545463
aF5.25609468
aF5.21146322
aF5.22881316
aF5.22881316
aF5.2397077
aF5.2397077
aF5.2384227
aF5.23842269
aF5.23842269
aF4.96791076
aF4.9580252
aF5.19227816
aF5.15253018
aF5.15381472
aF5.15381472
aF4.99842669
aF4.95551535
aF4.98720838
aF4.9872084
aF5.17469473
aF5.19368118
aF5.00855529
asVBTC-THC
p503
(lp504
F5.20121246
aF5.2451899
aF5.52444187
aF5.52410496
aF5.52410496
aF5.52521241
aF5.55487831
aF5.61356238
aF5.61969867
aF5.62158277
aF5.62240916
aF5.61869459
aF5.61869459
aF5.59682466
aF5.59682466
aF5.57687467
aF5.57318654
aF5.54554141
aF4.96194148
aF4.86201739
aF4.84913498
aF4.80075347
aF5.16012236
aF5.16012236
aF5.14285132
asVETH-STRAT
p505
(lp506
F542.13185165
aF542.76747508
aF543.14292378
aF543.19577137
aF543.19577137
aF540.29154038
aF541.13883182
aF554.71938381
aF574.3586571
aF578.32144981
aF578.51779906
aF580.04822454
aF575.90467916
aF575.90467916
aF577.77551932
aF591.35032725
aF599.08429495
aF599.08429495
aF615.48092871
aF610.36870793
aF575.11112943
aF580.18080441
aF580.18080441
aF497.63507065
aF497.6272689
asVBTC-VTC
p507
(lp508
F126.84664578
aF126.82796233
aF126.8446146
aF126.50021328
aF126.62118524
aF126.62625378
aF126.57766327
aF126.59136321
aF126.41849108
aF126.42730912
aF126.43792899
aF126.90959621
aF126.20023723
aF126.51316495
aF126.66780943
aF126.64372163
aF126.7887436
aF126.87311072
aF129.1833818
aF129.05070873
aF128.95334862
aF128.65633618
aF128.20104771
aF128.19546557
aF128.50166118
asVBTC-VRC
p509
(lp510
F21.86394766
aF21.87200222
aF21.81105776
aF21.81105776
aF21.95586773
aF22.28941691
aF22.34611995
aF22.48962414
aF25.21338739
aF25.74566916
aF25.90037996
aF26.04462361
aF26.55598288
aF26.72420337
aF27.9622786
aF28.95693991
aF27.75992664
aF30.50332946
aF31.04996043
aF31.33018211
aF31.47783877
aF31.68177781
aF31.8706703
aF31.79166069
aF31.82483925
asVBTC-ZCL
p511
(lp512
F8.98097998
aF9.28465645
aF9.89415146
aF10.00785674
aF10.01214261
aF10.01214261
aF9.98932057
aF9.99682798
aF9.99746405
aF10.22587627
aF10.04850704
aF9.99334798
aF9.93713695
aF9.93703733
aF9.48752121
aF9.49891525
aF9.16564
aF9.22778901
aF9.23988468
aF9.23988468
aF9.19808824
aF9.13023262
aF9.05667007
aF9.05752719
aF9.07713991
asVBTC-XRP
p513
(lp514
F1405.38198453
aF1405.68391543
aF1418.47892014
aF1422.09496586
aF1420.96941352
aF1431.22514294
aF1437.56315777
aF1437.55033186
aF1430.23496349
aF1438.5865235
aF1414.36436861
aF1409.6876371
aF1400.58415894
aF1389.06331942
aF1387.85784143
aF1386.95786449
aF1389.35157772
aF1408.01187871
aF1392.8003486
aF1410.32045361
aF1441.7644303
aF1454.83065525
aF1465.05078631
aF1460.45110168
aF1448.10957386
as.