(lp0
I1503634971
aI1503635582
aI1503636196
aI1503636811
aI1503637433
aI1503638050
aI1503638671
aI1503639292
aI1503639916
aI1503640542
aI1503641168
aI1503641796
aI1503642426
aI1503643057
aI1503643689
aI1503644323
aI1503644959
aI1503645597
aI1503646235
aI1503646876
aI1503647517
aI1503648160
aI1503648804
aI1503649451
aI1503650101
aI1503650751
aI1503651404
aI1503652057
aI1503652713
aI1503653368
aI1503654023
aI1503654681
aI1503655341
aI1503656003
aI1503656667
aI1503657333
aI1503658000
aI1503658669
aI1503659339
aI1503660010
aI1503660683
aI1503661358
aI1503662033
aI1503662710
aI1503663389
aI1503664068
aI1503664750
aI1503665433
aI1503666119
aI1503666807
aI1503667496
aI1503668185
aI1503668877
aI1503669569
aI1503670265
aI1503670962
aI1503671660
aI1503672357
aI1503673059
aI1503673763
aI1503674468
aI1503675174
aI1503675884
aI1503676596
aI1503677306
aI1503678019
a.