(dp0
VETH-WINGS
p1
(lp2
F62.12414592
aF62.12414592
aF62.12414592
aF58.88394297
aF54.40411039
aF54.40411039
aF54.12092682
aF54.20013677
aF48.36756296
aF45.9186309
aF45.9186309
aF45.9186309
aF45.38889329
aF45.38889329
aF45.38889329
aF45.38889329
aF45.52552154
aF45.52552154
aF44.4773668
aF44.4773668
aF43.6356798
aF43.699332
aF44.21565786
aF44.21565786
aF42.21044186
aF42.21044186
aF42.21044186
aF41.52753283
aF41.52753283
aF41.52753283
aF41.52753283
aF41.52753283
aF41.52753283
aF41.52753283
aF37.09410602
aF36.99259554
aF37.12947694
aF37.12947694
asVBTC-DYN
p3
(lp4
F3.28545267
aF3.28545267
aF3.24419502
aF3.14830208
aF3.14830208
aF3.15943517
aF3.13150859
aF2.93918089
aF2.99600832
aF2.99600832
aF3.75935943
aF3.75935943
aF3.49113568
aF3.49113568
aF3.52105949
aF3.52105949
aF3.61474634
aF3.61474634
aF3.61474634
aF3.61474634
aF3.74088208
aF3.74088208
aF3.73368908
aF3.73368908
aF3.73368908
aF3.73258909
aF3.73618008
aF3.73508009
aF3.73508009
aF3.69897991
aF3.69846992
aF3.69846992
aF3.70115444
aF3.70115444
aF3.5812899
aF3.58599496
aF3.58777074
aF3.57777049
asVBTC-OK
p5
(lp6
F2647.21714934
aF2760.14366368
aF2827.08988012
aF2941.92234512
aF3000.7158913
aF3027.77652817
aF3074.59086084
aF3138.12232537
aF3222.78203201
aF3304.69107544
aF3477.61231554
aF3531.47444492
aF3532.09060315
aF3544.23947663
aF3594.75421307
aF3666.66800661
aF3799.16946855
aF3936.74994593
aF4000.64484607
aF4032.39873784
aF4051.81383506
aF4075.11406326
aF4068.35956978
aF4104.28557577
aF4119.36175469
aF4155.46804668
aF4163.40691688
aF4201.11218934
aF4208.96603871
aF4221.32830945
aF4234.9274052
aF4232.20129391
aF4241.70355582
aF4253.56635842
aF4250.93332924
aF4261.56327935
aF4267.57692708
aF4272.36849269
asVBTC-SEQ
p7
(lp8
F2.23553913
aF2.23467663
aF2.22105559
aF2.22105559
aF2.21754864
aF2.23150125
aF2.27505486
aF2.27505486
aF2.27505486
aF2.27652235
aF2.27448454
aF2.26834794
aF2.26834794
aF2.26494494
aF2.25886019
aF2.26120431
aF2.26120431
aF2.1710258
aF2.15549239
aF2.15549239
aF2.15549239
aF2.15827736
aF2.15827736
aF2.11425668
aF2.11425668
aF2.11425668
aF2.48683228
aF2.48683228
aF2.48683228
aF2.48829229
aF2.48829229
aF2.48829229
aF2.4836978
aF2.4769358
aF2.5887306
aF2.5887306
aF2.5887306
aF2.5887306
asVBTC-ABY
p9
(lp10
F8.75236649
aF8.73447762
aF8.95094624
aF8.72625342
aF8.60863107
aF8.33938565
aF8.33938565
aF7.59939123
aF7.58002893
aF7.08291042
aF6.78339665
aF6.96084246
aF6.90616631
aF6.84275076
aF6.84096721
aF6.94363606
aF7.01338171
aF7.01345254
aF6.94742068
aF6.94525787
aF6.89298296
aF6.89298296
aF6.88138012
aF6.93792965
aF6.71131329
aF6.66505196
aF6.70419407
aF6.79585604
aF6.94406
aF6.94607088
aF7.08428603
aF7.46481427
aF7.47288719
aF7.46980454
aF7.38783249
aF7.42400124
aF7.2912625
aF7.32146885
asVUSDT-BTC
p11
(lp12
F80076337.05720267
aF77637404.91022485
aF75630733.27124995
aF72959016.41623005
aF70552862.00681166
aF66404163.19809742
aF63191502.04230065
aF59405943.2521062
aF56561070.61631981
aF55068475.43099126
aF53663665.77514318
aF52015756.98314866
aF50987067.48065684
aF50078247.96783615
aF48641200.60325761
aF47465147.41529688
aF46661620.73766085
aF46081097.90214604
aF45818393.95663302
aF45328249.8612653
aF44572801.15807675
aF44106311.21249372
aF43873799.55146452
aF43655874.4252743
aF43254818.49867551
aF42846696.41838622
aF42425816.41148587
aF42283641.00579825
aF42074962.33784348
aF41922574.87068397
aF41908539.7326401
aF41359281.76835316
aF40640270.49460198
aF40814744.15454073
aF40792194.42079233
aF40640314.61045473
aF40078562.52704897
aF39450060.78555844
asVBTC-TX
p13
(lp14
F5.11797106
aF5.14761924
aF5.15066711
aF5.12089403
aF4.65737556
aF4.73307946
aF4.73539155
aF4.68570606
aF4.23257404
aF4.23257404
aF4.19390599
aF4.21491136
aF4.27787432
aF4.25156369
aF4.25156369
aF3.97111786
aF3.47715084
aF3.45979779
aF3.46034779
aF3.46034779
aF3.46034779
aF3.45564385
aF3.43822185
aF3.37912669
aF3.37912669
aF3.37520674
aF3.22306658
aF3.22306658
aF2.87280694
aF2.87280694
aF2.88389551
aF2.897178
aF2.90206166
aF2.9018032
aF2.91013016
aF2.88503246
aF2.88503246
aF2.6404176
asVBTC-NMR
p15
(lp16
F83.07277469
aF88.91917296
aF87.84654373
aF87.95977111
aF88.52208975
aF84.75775212
aF84.5943937
aF84.5943937
aF83.63022295
aF87.06379827
aF88.58788764
aF90.0473074
aF90.6721521
aF87.41316416
aF87.47297047
aF87.85759044
aF88.33683793
aF89.39654745
aF89.18535694
aF90.70086356
aF91.61936107
aF92.26989506
aF93.43230084
aF108.51011304
aF115.83040152
aF134.01798399
aF154.43222973
aF162.84684556
aF175.91909824
aF196.84915265
aF215.33685964
aF224.30919845
aF229.41900807
aF235.12097757
aF239.26420715
aF242.1398044
aF244.79954222
aF246.37524801
asVETH-ADT
p17
(lp18
F33.49812191
aF33.54112997
aF31.65110401
aF31.82620906
aF31.82620906
aF31.31296541
aF26.76600114
aF23.26093014
aF23.26093014
aF22.41706497
aF22.41706497
aF21.44516386
aF33.07995751
aF32.85733191
aF35.15889913
aF37.54569002
aF37.54569002
aF37.54569002
aF37.90916897
aF31.64724575
aF37.14957455
aF43.32702287
aF44.34548197
aF44.18749551
aF55.67239442
aF55.67239442
aF55.67239442
aF55.67239442
aF55.67239442
aF55.67239442
aF55.67239442
aF55.8346843
aF56.72990849
aF56.72990849
aF56.72990849
aF59.8784804
aF62.42082313
aF62.42082313
asVETH-NEO
p19
(lp20
F12764.00375925
aF12510.67301364
aF12331.40154838
aF12081.26896616
aF11971.15867224
aF11188.78611983
aF10714.50914069
aF10509.88412228
aF10307.90206764
aF10286.55611486
aF10094.13150769
aF9208.83405389
aF8994.24493194
aF8863.35462274
aF8540.46512529
aF8469.9584431
aF8238.53910524
aF8072.95693994
aF8103.35323008
aF8077.24320708
aF7839.01848456
aF7920.09432035
aF7810.51617834
aF7814.31977321
aF8081.5529374
aF7783.62897546
aF7651.96466934
aF7571.56746117
aF7546.42332481
aF7584.93126958
aF7553.52696709
aF7411.9211798
aF7395.31730959
aF7628.80962593
aF7663.75291009
aF8138.02491225
aF8338.00273977
aF8210.15321606
asVBTC-TRUST
p21
(lp22
F1.5077314
aF1.5077314
aF3.3831899
aF3.38089433
aF3.38089433
aF3.28034102
aF4.04174281
aF4.27592799
aF4.29173141
aF4.29729112
aF4.27612068
aF4.29515937
aF4.31364794
aF4.28646313
aF4.24855725
aF4.30542606
aF4.31900967
aF4.31900967
aF4.31955967
aF4.31823422
aF4.31823422
aF4.17387946
aF4.17387946
aF4.19738983
aF4.19738983
aF4.17704568
aF4.17704568
aF4.18773841
aF4.18773841
aF4.18773841
aF4.19829099
aF4.19829099
aF4.19829099
aF4.19633887
aF4.17928161
aF4.19132407
aF4.19132407
aF4.1460417
asVETH-WAVES
p23
(lp24
F270.23055083
aF270.23055083
aF257.33951015
aF246.80354885
aF246.31203537
aF241.86306869
aF241.86306869
aF199.25816578
aF195.70648468
aF195.70648468
aF195.81826483
aF196.37427727
aF196.37427727
aF196.37427727
aF200.01046469
aF200.01046469
aF193.03047596
aF179.44282563
aF177.56959404
aF179.79950729
aF181.51038599
aF181.15388781
aF180.50728029
aF180.50728029
aF174.34120964
aF119.17325969
aF119.74502969
aF120.71109953
aF108.83883972
aF108.39510269
aF108.39510269
aF103.76670587
aF103.04292834
aF103.81476247
aF103.29838736
aF103.29838736
aF103.29838736
aF102.88600471
asVETH-DGB
p25
(lp26
F123.30172948
aF123.30172948
aF123.30172948
aF123.01338329
aF114.31637058
aF113.60857433
aF104.54273839
aF68.20900503
aF76.51611699
aF74.96514451
aF75.41938539
aF75.01558539
aF75.01558539
aF79.17916361
aF80.35447542
aF80.35447542
aF77.62627894
aF73.93374633
aF73.42279729
aF73.42279729
aF73.42279729
aF73.76916655
aF66.74612978
aF47.93477481
aF48.0476629
aF47.1007663
aF50.84574453
aF50.84574453
aF50.84574453
aF49.34298847
aF52.94940783
aF53.49894804
aF54.72592689
aF54.77892689
aF54.77892689
aF54.61596689
aF54.59607105
aF54.40061169
asVETH-STORJ
p27
(lp28
F414.44612676
aF400.30042503
aF400.30042503
aF397.26711551
aF375.47613349
aF374.21508614
aF362.72528054
aF362.94143055
aF356.61333015
aF356.46975766
aF356.72251362
aF356.97000454
aF356.97000454
aF351.42136203
aF352.13384642
aF352.29583426
aF356.56457573
aF356.40716394
aF356.69168091
aF365.61183209
aF365.61183209
aF318.5711468
aF309.66929407
aF309.66929407
aF306.78486431
aF305.274166
aF289.36405873
aF285.93415239
aF285.93415239
aF285.93415239
aF285.75553648
aF285.75990297
aF282.16976002
aF282.16976002
aF282.87560731
aF282.87560731
aF306.34646586
aF306.07677462
asVETH-DGD
p29
(lp30
F86.90961091
aF86.85937595
aF82.92160375
aF82.93512846
aF82.93512846
aF83.13790617
aF85.15684617
aF79.14270895
aF79.14270895
aF79.14270895
aF79.03666768
aF79.01397614
aF79.01397614
aF79.01397614
aF74.66488783
aF75.87127005
aF75.87127005
aF75.87127005
aF75.87127005
aF75.91287353
aF75.73555459
aF75.73555459
aF75.73555459
aF75.73555459
aF75.73555459
aF184.0316031
aF193.62002146
aF195.0478215
aF197.96416668
aF198.04997323
aF198.09531147
aF335.76532272
aF348.15195919
aF354.20228486
aF354.20228486
aF376.12513551
aF406.75935885
aF411.08629728
asVBTC-GOLOS
p31
(lp32
F3.23406667
aF3.24201774
aF3.04575239
aF3.04913983
aF3.0869509
aF3.09198527
aF3.09198527
aF3.02764812
aF3.02436017
aF3.02686016
aF3.02686016
aF3.02957569
aF3.05501305
aF2.90907372
aF2.91168691
aF2.89624408
aF2.9327524
aF2.93020344
aF2.92121449
aF2.96468753
aF2.95348544
aF2.95205329
aF2.95342947
aF2.95459623
aF3.09617273
aF3.09617273
aF3.1126902
aF3.13845104
aF3.14074172
aF3.13941389
aF3.13941389
aF3.13923983
aF3.32502776
aF3.33029898
aF3.35442128
aF3.33252528
aF3.33327137
aF3.33327137
asVBTC-DAR
p33
(lp34
F5.6741394
aF5.60281855
aF5.38455463
aF5.38455463
aF5.30446649
aF5.07434085
aF5.1036038
aF5.01285916
aF5.01340436
aF5.03884768
aF4.3943634
aF4.03446232
aF4.03446232
aF4.05189865
aF4.0590541
aF4.04413322
aF4.74426212
aF4.74426212
aF4.49878691
aF4.46747923
aF4.46747923
aF4.46747923
aF4.44025182
aF4.44025182
aF4.44025182
aF3.75029806
aF3.67747179
aF3.67747179
aF3.67673179
aF3.67499697
aF3.45554697
aF3.65494191
aF3.65596012
aF3.75558602
aF3.75825188
aF3.77003922
aF3.77003922
aF3.77003922
asVBTC-VOX
p35
(lp36
F29.88203267
aF28.92776192
aF27.93140823
aF27.91945993
aF24.97194996
aF23.92473613
aF23.49274456
aF23.49274456
aF22.80845994
aF22.77622308
aF22.80314123
aF23.39194784
aF23.39194784
aF23.2890298
aF22.90156082
aF22.36880605
aF22.24852523
aF22.17389997
aF22.17389997
aF18.87341807
aF18.78372529
aF18.48309214
aF18.10325296
aF18.1254283
aF17.57655345
aF17.35868844
aF17.26571568
aF17.49698282
aF17.60971342
aF17.75829804
aF17.78632348
aF17.6515141
aF17.6515141
aF17.1825487
aF17.18020357
aF17.27451396
aF17.27451396
aF16.55268416
asVBTC-XWC
p37
(lp38
F35.50698565
aF35.50698565
aF31.78902206
aF30.96381119
aF28.29592913
aF27.29581584
aF27.29581584
aF25.64898679
aF25.26263227
aF23.57242595
aF22.60764534
aF22.24477556
aF22.02817262
aF21.71074772
aF19.85244548
aF18.90453209
aF19.31750933
aF19.31750933
aF18.6038623
aF18.83405076
aF18.83405076
aF18.59907436
aF18.63747926
aF18.4318151
aF18.41191845
aF17.81996853
aF17.81996853
aF17.59776802
aF17.42110926
aF17.42348047
aF17.64303543
aF17.32334342
aF16.83161933
aF16.78504204
aF16.58683438
aF16.55375139
aF15.93941341
aF15.93941341
asVBTC-SYNX
p39
(lp40
F24.09108004
aF24.87705087
aF25.03019756
aF24.96401202
aF24.96347383
aF25.21646297
aF25.15953286
aF25.7068052
aF25.91284765
aF25.84908148
aF25.83315841
aF25.79366869
aF25.54750962
aF24.24189251
aF23.6728702
aF24.49840608
aF25.23730538
aF24.96307446
aF23.82543804
aF23.52881886
aF23.10727145
aF23.1728053
aF23.18677388
aF23.19059086
aF22.15715979
aF22.15715979
aF21.98615265
aF20.46844595
aF20.46844595
aF19.72678156
aF20.07806329
aF19.36865434
aF19.24153165
aF19.09435238
aF19.16875087
aF19.04341333
aF19.04000065
aF19.04000065
asVBTC-MLN
p41
(lp42
F7.7444777
aF7.73057781
aF7.73057781
aF7.6360473
aF7.40579848
aF7.39536569
aF7.05088032
aF7.05088032
aF6.97898264
aF6.98804693
aF6.98804693
aF7.00502201
aF7.01904147
aF7.01904147
aF6.60985667
aF6.54197804
aF6.55197802
aF6.55197802
aF6.55197802
aF6.66819226
aF6.65623632
aF6.64613145
aF6.24988592
aF6.19436804
aF6.19608545
aF6.19861917
aF6.19861917
aF6.19861917
aF6.19607041
aF6.19607041
aF5.19748291
aF5.20520817
aF5.19440254
aF5.22256547
aF5.19102541
aF5.18028458
aF5.18028458
aF5.13391504
asVBTC-NXC
p43
(lp44
F36.80475253
aF37.14585131
aF39.13304311
aF41.76689748
aF52.78545789
aF60.40973344
aF64.41098816
aF67.27231479
aF69.02150609
aF69.57287111
aF72.4351849
aF72.99309815
aF74.56112647
aF75.02100386
aF77.2389156
aF77.42080291
aF77.67667625
aF77.73037019
aF77.34045227
aF79.11595179
aF78.93723949
aF79.90895594
aF80.44977619
aF80.75308238
aF82.70754369
aF83.17709462
aF83.42119803
aF83.04871128
aF83.22542583
aF83.22976665
aF83.37657608
aF83.93109081
aF84.83956802
aF85.88265853
aF86.27259722
aF86.71087358
aF87.7033245
aF88.63080132
asVBTC-WAVES
p45
(lp46
F321.15119134
aF318.92872185
aF313.43370962
aF307.121065
aF298.41905356
aF290.94576092
aF280.34075043
aF271.54082584
aF266.24556935
aF263.87665188
aF259.79657481
aF262.74913235
aF264.80021444
aF272.21819953
aF272.20075049
aF278.91700007
aF270.74868293
aF262.20587725
aF260.50556594
aF263.60705793
aF262.80228693
aF262.73954404
aF257.79123598
aF247.32155855
aF247.25753086
aF248.69509665
aF248.54559139
aF250.11182463
aF250.02399477
aF249.90049993
aF248.94389515
aF246.14576985
aF243.54891779
aF242.58417332
aF242.11406141
aF243.22078324
aF232.49882953
aF235.80678159
asVBTC-EGC
p47
(lp48
F3.74881799
aF3.7385217
aF3.7385217
aF3.6885217
aF3.63349989
aF3.48921139
aF3.46539401
aF3.42339207
aF3.42339207
aF3.36556977
aF3.36556977
aF3.21339258
aF3.20243637
aF3.20343387
aF3.20343387
aF3.18277463
aF3.03817827
aF3.03817827
aF3.03817827
aF3.02565753
aF3.29041509
aF3.29041509
aF3.38365813
aF3.39531364
aF3.40266443
aF3.41335347
aF3.42134961
aF3.42134961
aF3.56798216
aF3.56798216
aF3.5721152
aF3.57454456
aF3.58844012
aF3.58527759
aF3.58527759
aF3.58541844
aF3.66166074
aF3.69247601
asVBTC-CVC
p49
(lp50
F399.80557246
aF394.34265979
aF390.95279511
aF383.59031927
aF364.95364068
aF338.19516834
aF310.74452572
aF290.97892417
aF282.58280828
aF282.67971485
aF277.32721295
aF274.21448656
aF274.6941689
aF276.0683294
aF274.81601705
aF274.96651824
aF276.23882974
aF279.26970499
aF278.78323797
aF278.89731358
aF274.69357838
aF280.05758321
aF289.6064056
aF300.4381071
aF308.0613291
aF294.76742651
aF298.13127308
aF300.27840175
aF299.68641303
aF305.51406902
aF308.68830491
aF308.43118493
aF302.4379244
aF302.07854345
aF304.93570352
aF317.36002822
aF322.59290106
aF319.19604807
asVBTC-ETC
p51
(lp52
F750.39195169
aF737.67080026
aF718.73729474
aF701.42868876
aF690.99611865
aF666.85106777
aF649.25043711
aF628.03756053
aF620.54306749
aF598.35733195
aF576.09511223
aF556.69144654
aF551.49457649
aF540.15400016
aF533.36682602
aF514.85821208
aF502.88846341
aF497.12927539
aF485.48370656
aF478.85506382
aF474.15087241
aF468.76123502
aF467.11852905
aF487.29276153
aF489.28885643
aF489.55807966
aF480.52628515
aF480.01819562
aF475.59635094
aF471.33266425
aF471.47452135
aF476.62715514
aF470.82019863
aF473.46359608
aF481.56972351
aF483.80691875
aF484.78730995
aF486.80404678
asVBTC-STRAT
p53
(lp54
F939.4774862
aF904.31146819
aF874.96025414
aF831.10846318
aF797.9001542
aF774.19405028
aF753.47284916
aF726.83506216
aF684.89491009
aF669.57450161
aF664.83783735
aF661.06726504
aF643.15321844
aF656.08740788
aF657.13548649
aF659.31206535
aF652.15970112
aF644.46552078
aF633.621071
aF636.44291509
aF633.88970368
aF634.47635247
aF637.86287976
aF628.59693207
aF623.29376924
aF626.32175692
aF626.37940336
aF624.02417574
aF619.35126087
aF611.9379195
aF612.54236919
aF611.09124866
aF609.03061063
aF605.83711876
aF603.99071825
aF603.37527541
aF591.57868063
aF590.7426029
asVBTC-IOP
p55
(lp56
F5.43969934
aF5.33542818
aF5.31755315
aF5.0626255
aF5.36096197
aF4.74217123
aF4.74217123
aF4.89856983
aF4.89856983
aF4.89856983
aF4.90503832
aF4.94922338
aF4.94922338
aF4.84907267
aF4.84907267
aF4.83422442
aF4.91145091
aF4.82356155
aF4.81996575
aF5.30435461
aF5.30524484
aF5.374046
aF5.35362849
aF5.37033159
aF5.36977294
aF5.36977294
aF5.36977294
aF4.65797752
aF4.55164188
aF4.55164188
aF4.55800285
aF4.56112365
aF4.56182829
aF6.91132153
aF7.41099549
aF8.79408341
aF9.01984511
aF9.06072233
asVBTC-ETH
p57
(lp58
F5046.87764201
aF4929.56877311
aF4851.32990323
aF4765.31714308
aF4674.68212236
aF4533.08746409
aF4375.77300383
aF4171.39921286
aF4096.12436205
aF4005.61635686
aF3880.40590756
aF3797.56188826
aF3751.91202857
aF3716.72036699
aF3631.82295099
aF3606.65775957
aF3582.90515296
aF3532.5509827
aF3476.39321887
aF3440.62867297
aF3389.59244863
aF3365.25410877
aF3364.04786789
aF3343.12582077
aF3330.56965149
aF3315.00892308
aF3297.54680509
aF3291.8406346
aF3273.45286521
aF3232.25065636
aF3218.96819099
aF3197.19468273
aF3195.95581302
aF3176.35234636
aF3177.79647425
aF3191.31547782
aF3173.65016761
aF3169.08576227
asVBTC-CPC
p59
(lp60
F778.71778221
aF780.70531949
aF781.99145159
aF780.94313415
aF778.49564993
aF776.48510081
aF777.07739095
aF776.54435565
aF775.67986867
aF773.1947981
aF771.84111503
aF770.26712243
aF766.44564921
aF746.90398778
aF739.36379858
aF726.68121448
aF720.11483681
aF716.39846656
aF711.61425578
aF714.21886474
aF713.58849679
aF714.34649735
aF712.26500639
aF708.77897777
aF689.64176193
aF681.07250196
aF668.37869097
aF661.77605877
aF655.62992139
aF655.27568641
aF639.28286709
aF638.03604975
aF604.23779081
aF575.52033829
aF570.86129481
aF552.21531187
aF540.16993957
aF534.32675215
asVBTC-CLOAK
p61
(lp62
F493.25867739
aF493.80524522
aF507.34142524
aF519.93069857
aF521.83562687
aF521.20957118
aF519.64162248
aF518.75728216
aF519.2968877
aF519.27399791
aF536.68470855
aF536.61620186
aF563.02184759
aF578.72342618
aF593.75916315
aF613.58713476
aF610.18384336
aF589.8212813
aF597.67800901
aF606.6062973
aF608.3845131
aF608.41630897
aF606.01322543
aF602.58389571
aF603.11378565
aF603.73899556
aF603.74093669
aF594.70146229
aF598.45081531
aF611.35702862
aF646.27002012
aF651.55037483
aF691.2725844
aF709.32803276
aF746.70626864
aF787.92633666
aF830.65960459
aF849.69625203
asVBTC-CLAM
p63
(lp64
F14.06895987
aF13.76333855
aF13.69818729
aF13.69818729
aF13.09844544
aF13.09844544
aF13.09844544
aF11.21544749
aF11.21544749
aF10.21769054
aF9.59224529
aF9.33560887
aF9.21577416
aF9.21063716
aF9.24241309
aF9.205138
aF9.07197737
aF8.95027487
aF8.89096315
aF8.90136798
aF9.29787091
aF9.25258902
aF9.25258902
aF9.36481332
aF9.37900595
aF8.49944982
aF8.49944982
aF8.57321094
aF8.58751873
aF9.03915442
aF9.03915442
aF9.05380785
aF9.05184491
aF9.06613468
aF9.10054848
aF8.56393496
aF8.66204557
aF8.6739974
asVBTC-SNT
p65
(lp66
F485.86715748
aF476.21563939
aF459.80341973
aF437.49205788
aF424.56172457
aF414.87202778
aF409.28751798
aF401.79779052
aF392.70023882
aF381.64746125
aF377.17323823
aF371.38970567
aF367.38952342
aF367.30495034
aF362.47124016
aF362.03538097
aF357.87992607
aF354.73945386
aF354.00712637
aF351.86291024
aF349.05256199
aF351.51326592
aF351.80384323
aF351.42774565
aF350.19717589
aF349.22856291
aF347.46863938
aF342.666754
aF337.31787607
aF333.57293035
aF333.26130582
aF331.10303212
aF330.85157474
aF326.44534327
aF326.61140119
aF327.34508467
aF324.27860859
aF334.4806373
asVBTC-TRST
p67
(lp68
F72.84457657
aF72.81900764
aF72.69235632
aF72.28727421
aF72.06161663
aF70.81685626
aF63.96626394
aF63.6171012
aF62.25545941
aF62.88373288
aF62.93050243
aF62.6382809
aF61.89431458
aF61.7501335
aF61.59342877
aF61.91747604
aF62.55691173
aF62.21842618
aF62.63107443
aF62.61466668
aF62.42439925
aF62.25473314
aF61.92969888
aF61.08999168
aF60.16362568
aF60.01114787
aF60.08991373
aF60.08991373
aF60.22595967
aF61.5329362
aF61.689234
aF62.67801969
aF62.60602674
aF63.12789636
aF65.14955824
aF65.13444503
aF65.30552393
aF64.28092626
asVETH-SNT
p69
(lp70
F944.58259065
aF949.66985519
aF949.63363511
aF923.20164457
aF826.84592417
aF821.52469204
aF811.5183137
aF806.28025784
aF794.32393638
aF783.84945265
aF781.99932933
aF777.53169697
aF772.08556118
aF775.79122661
aF777.72875582
aF779.24277211
aF778.49706619
aF735.61837468
aF748.36443023
aF752.52429232
aF747.75753843
aF747.38669683
aF752.31687771
aF762.23688153
aF761.76385236
aF761.77136292
aF740.42988423
aF750.58050722
aF762.61761922
aF767.66821911
aF796.69480001
aF795.58242651
aF796.76035084
aF799.41482578
aF799.44213622
aF800.17629453
aF782.58975712
aF787.64145966
asVETH-XEM
p71
(lp72
F225.04391215
aF226.38467786
aF226.38467786
aF225.77995437
aF225.21745894
aF225.21745894
aF219.21677983
aF208.03009888
aF208.03009888
aF147.74563432
aF194.89445466
aF252.94365562
aF283.90051427
aF285.0023813
aF307.23071633
aF335.46437711
aF339.5505034
aF351.82558831
aF362.60992901
aF377.54384903
aF377.54384903
aF428.03512518
aF430.24188107
aF452.91788157
aF453.43642777
aF458.91818383
aF460.9842549
aF561.16830005
aF566.64645681
aF606.02796722
aF606.05323132
aF604.89121987
aF606.21709841
aF616.16193083
aF616.16243158
aF623.51477327
aF650.27691725
aF643.2549986
asVBTC-SBD
p73
(lp74
F12.33621592
aF11.33923022
aF11.14422509
aF11.15754964
aF11.06405682
aF11.06405682
aF10.55661162
aF9.84243572
aF9.19127302
aF9.15815055
aF8.9303816
aF9.00294657
aF9.00294657
aF8.9852726
aF7.99757577
aF7.80456533
aF7.82048066
aF7.75113568
aF7.75631361
aF7.76393258
aF7.70741629
aF7.62431507
aF7.62431507
aF7.45672969
aF7.47375119
aF7.44177487
aF7.44177487
aF7.35682913
aF7.35682913
aF7.35432925
aF7.34287327
aF7.22531511
aF6.95941988
aF6.58824404
aF6.4936057
aF6.4936057
aF6.05114631
aF6.11347534
asVBTC-CANN
p75
(lp76
F12.08931154
aF12.06997213
aF11.97448883
aF11.53450156
aF11.544118
aF10.33585671
aF10.72664544
aF10.26518992
aF10.26872018
aF10.08485311
aF9.89868629
aF10.6833593
aF10.33869177
aF9.73639843
aF9.45266203
aF9.4673136
aF9.49805515
aF9.50887642
aF9.50075146
aF9.46836947
aF9.37603264
aF9.37550925
aF9.24051376
aF8.72882103
aF8.73088549
aF8.33449225
aF8.3509424
aF8.41596973
aF8.23039064
aF8.11972069
aF8.04541409
aF7.99251766
aF7.97680276
aF7.99626712
aF7.85625997
aF7.74672364
aF7.71821652
aF7.58162816
asVBTC-SWT
p77
(lp78
F76.91045787
aF77.27400995
aF77.52007249
aF77.09424347
aF77.16844276
aF78.47954619
aF79.33417493
aF80.06928743
aF79.76929981
aF80.33355665
aF80.3467633
aF80.47504329
aF79.81522016
aF79.70309777
aF79.73361512
aF79.53697322
aF79.51559988
aF79.11670542
aF78.86298746
aF78.98836072
aF78.97923525
aF79.00148568
aF78.72731482
aF78.94415574
aF78.94792793
aF78.87966015
aF78.92540154
aF78.85494959
aF78.85702711
aF79.55411622
aF81.07691338
aF81.06784656
aF81.04132304
aF80.44290666
aF80.45329965
aF79.80171132
aF79.86230213
aF79.03970144
asVBTC-BLK
p79
(lp80
F65.91505973
aF65.93355956
aF64.40631347
aF64.09112049
aF62.92250524
aF60.40736082
aF56.69812164
aF55.69644608
aF53.06329794
aF50.86428502
aF51.06678493
aF50.69286518
aF51.34622422
aF51.26001205
aF50.82381039
aF50.69214754
aF50.97001515
aF50.57408165
aF50.0225875
aF49.70544718
aF49.63313036
aF49.00404192
aF48.20866905
aF48.14943255
aF47.9284517
aF46.15474727
aF45.75828936
aF45.07535094
aF43.59073813
aF43.36453819
aF43.29156913
aF42.22580211
aF42.1754606
aF42.06729526
aF42.03109511
aF42.0532632
aF39.90722963
aF39.87764745
asVBTC-UNO
p81
(lp82
F29.17977193
aF29.73852535
aF29.73449105
aF29.73536893
aF30.56073908
aF30.56145573
aF30.55296155
aF30.61381436
aF30.61602538
aF30.62794866
aF30.63214856
aF30.68492136
aF30.68437138
aF30.73424637
aF30.73424637
aF30.74170972
aF30.74170972
aF30.74064208
aF30.74918123
aF30.74868123
aF30.75798973
aF30.75798973
aF30.75694257
aF30.76356674
aF30.76356674
aF30.76484161
aF30.76662945
aF30.79096458
aF30.78163683
aF30.78258418
aF30.94383884
aF30.93866775
aF30.98064087
aF30.98064087
aF30.98064087
aF31.00197313
aF31.00197313
aF31.12297313
asVETH-OMG
p83
(lp84
F14107.18108862
aF13978.30451152
aF13968.20647788
aF13776.60571824
aF13384.03133958
aF13250.46099108
aF12607.2470275
aF12408.03218531
aF12095.13384785
aF12050.33968221
aF11993.61160663
aF11827.98115791
aF11834.24675818
aF11807.28621443
aF11666.11885473
aF11562.37278887
aF11532.98168983
aF11322.98941094
aF11250.76490707
aF11303.17858458
aF11357.85455156
aF11430.75126581
aF11518.54478585
aF11589.58872104
aF11736.40108914
aF11725.83515729
aF11662.14681422
aF11687.25297219
aF11686.9321454
aF11905.51733488
aF11833.76080372
aF11826.56281532
aF11528.55240904
aF11599.0769589
aF11643.06830971
aF11734.70482304
aF11763.2175261
aF11644.89391199
asVBTC-DASH
p85
(lp86
F439.5667711
aF432.35441029
aF409.64041052
aF408.92684285
aF408.07644265
aF385.75358579
aF359.55476165
aF351.73653278
aF320.64794467
aF317.00515598
aF315.9725646
aF308.16744652
aF304.29130089
aF303.78645998
aF303.14586674
aF299.26088788
aF298.77307762
aF297.17937497
aF289.67109102
aF287.6546088
aF284.82676119
aF287.60362291
aF301.56313021
aF299.64182713
aF296.34975234
aF293.56869374
aF293.53668063
aF291.2162942
aF290.16284285
aF289.69081139
aF289.86860228
aF291.35178568
aF290.83965834
aF289.4014421
aF292.11586155
aF287.49971342
aF287.41652136
aF288.77053243
asVETH-QTUM
p87
(lp88
F8705.43043706
aF8576.08609951
aF8140.9813078
aF7995.30682994
aF7615.22618957
aF7185.19669918
aF7075.43856302
aF7033.28144684
aF6821.22751358
aF6624.58367009
aF6308.72494296
aF5959.63977211
aF5868.32197295
aF5687.3648496
aF5634.17403984
aF5383.03180832
aF5476.59413263
aF5523.60023275
aF5589.60803992
aF5602.38727759
aF5610.99097729
aF5634.0929337
aF5561.04884663
aF5539.34754362
aF5493.20323699
aF5507.10239209
aF5500.00292758
aF5485.40205849
aF5464.67515647
aF5414.77605838
aF5414.70010665
aF5120.11610271
aF5078.38127493
aF5075.46308275
aF5098.8385882
aF5085.3948564
aF5070.09983639
aF4956.37535313
asVBTC-FUN
p89
(lp90
F66.02384322
aF66.06790117
aF63.47683121
aF58.91609295
aF58.91609295
aF55.12402124
aF54.66345062
aF52.75701894
aF48.63510969
aF46.62319591
aF47.29685738
aF46.38471306
aF44.5672561
aF44.64441327
aF42.81949839
aF44.46190563
aF44.47189416
aF43.63246973
aF43.21046478
aF43.11027502
aF42.40332704
aF40.94495621
aF40.87335426
aF40.31722388
aF40.31323849
aF40.21170229
aF49.01320226
aF49.0216182
aF49.1588898
aF49.44562693
aF49.35162178
aF49.91654343
aF49.0899113
aF43.89391089
aF43.39885535
aF43.21109612
aF43.21109612
aF43.2817655
asVBTC-MAID
p91
(lp92
F155.50928871
aF155.21299769
aF151.59844492
aF145.11677114
aF139.80926248
aF139.80926248
aF133.45580231
aF127.44178009
aF120.89091915
aF116.87903758
aF110.25322036
aF109.58479975
aF101.80803765
aF101.80803765
aF100.93783213
aF100.8769227
aF99.92058382
aF99.86865788
aF99.77368343
aF99.10346991
aF96.80365173
aF96.8278983
aF95.4323312
aF95.52440653
aF95.13379863
aF95.07355051
aF94.3655334
aF94.38814744
aF94.48627029
aF94.36050155
aF94.38429021
aF94.37881524
aF95.18668863
aF95.95797836
aF97.34418915
aF97.524275
aF83.26070598
aF83.1743292
asVBTC-ZEN
p93
(lp94
F54.76316119
aF52.21222577
aF51.9302466
aF51.51036686
aF50.39003107
aF49.52156634
aF48.127516
aF47.23528852
aF46.42295607
aF46.03506098
aF46.28749309
aF46.64183584
aF47.57972709
aF47.505843
aF45.49392703
aF45.28779907
aF45.26114522
aF44.35967923
aF44.24155302
aF43.99939321
aF43.74290064
aF46.147445
aF47.44295613
aF46.64111618
aF46.48879853
aF43.4902696
aF43.2670537
aF43.03150412
aF41.08152982
aF41.34324509
aF41.27520962
aF41.32592789
aF40.38052064
aF40.36740704
aF40.88435507
aF41.14542995
aF41.165893
aF41.44227304
asVBTC-AEON
p95
(lp96
F5.96514496
aF5.98694207
aF5.9721825
aF5.9721825
aF5.99518958
aF5.97891559
aF5.98486969
aF5.99414346
aF5.9755566
aF6.09159058
aF6.08173035
aF6.14966839
aF6.14966839
aF6.25304516
aF6.19142358
aF6.18356227
aF6.83174391
aF6.83174391
aF6.84209175
aF6.86348787
aF7.74447449
aF7.75555293
aF7.80249084
aF8.67866125
aF8.77431984
aF7.41366963
aF7.65883651
aF7.66476511
aF7.41784893
aF7.36166832
aF7.36166832
aF7.15603738
aF6.88588146
aF6.89739331
aF6.90059411
aF10.26613164
aF10.34483901
aF10.43663457
asVBTC-NEO
p97
(lp98
F10384.40084159
aF10226.72767672
aF10055.7444043
aF9761.5113978
aF9398.72802575
aF8792.83074779
aF8387.2599013
aF8040.85624899
aF7843.30056833
aF7707.23636926
aF7525.93544481
aF7304.67535925
aF7109.28051947
aF6980.61304898
aF6875.26153391
aF6728.51070939
aF6568.85534072
aF6514.10066346
aF6449.45127032
aF6451.61648817
aF6345.69991327
aF6325.28562314
aF6342.55673454
aF6361.86742334
aF6357.99553312
aF6285.29218687
aF6206.7285505
aF6183.0958007
aF6133.95682175
aF6105.00463558
aF6088.66084438
aF6064.88017821
aF6049.39828641
aF6139.02665062
aF6142.04720425
aF6117.71163565
aF6040.52925638
aF6008.50551654
asVETH-MCO
p99
(lp100
F1835.56253288
aF1823.48639068
aF1750.14426307
aF1725.33916169
aF1717.98441875
aF1717.98441875
aF1292.98283048
aF1263.50203307
aF1077.40800311
aF980.73076923
aF897.77018341
aF876.892648
aF875.93161769
aF864.64215663
aF831.85097162
aF828.67995262
aF828.67995262
aF804.77331363
aF805.66750364
aF809.57757072
aF771.10124612
aF767.55239769
aF772.91161395
aF775.38544323
aF776.79518995
aF774.3730487
aF761.92190263
aF773.45443904
aF773.08733908
aF776.17953307
aF780.39454264
aF737.75920955
aF734.91974075
aF734.290186
aF712.89439869
aF685.6254217
aF685.6254217
aF682.04042144
asVBTC-MONA
p101
(lp102
F28.35353715
aF28.35353715
aF28.15725325
aF28.26229427
aF27.91322284
aF26.66099504
aF26.01447836
aF24.20597549
aF23.99565016
aF24.00104238
aF24.00104238
aF23.36503522
aF23.43702941
aF23.42260394
aF23.33970732
aF23.33970732
aF22.50258242
aF22.39485718
aF22.3994479
aF22.36454752
aF22.26930026
aF22.03927358
aF21.46262246
aF21.45875493
aF21.19809709
aF20.87120349
aF19.94169448
aF19.93435008
aF21.34719516
aF21.34748409
aF21.44757556
aF21.45263226
aF20.87758872
aF20.93411838
aF20.94308475
aF20.95942794
aF20.42225207
aF20.52270233
asVETH-XLM
p103
(lp104
F89.9186249
aF88.33650573
aF86.56264124
aF86.56264124
aF85.94271524
aF81.54515594
aF77.28075885
aF77.04322722
aF75.97926619
aF72.38550461
aF72.38550461
aF71.15209649
aF71.15209649
aF70.19640295
aF69.958404
aF70.70652899
aF70.89657888
aF70.89657888
aF70.89657888
aF70.87662889
aF70.87662889
aF70.87662889
aF71.18245289
aF71.18245289
aF71.17354289
aF70.76281656
aF71.62973003
aF71.62973003
aF71.61604647
aF71.58649555
aF71.72927827
aF71.71730343
aF71.71437117
aF72.06918615
aF72.06918615
aF72.06918615
aF72.06918615
aF72.06918615
asVBTC-EDG
p105
(lp106
F145.46448847
aF138.7450383
aF137.01755448
aF131.16528156
aF129.77442813
aF128.40864499
aF124.12799259
aF122.7779186
aF120.84346499
aF120.2790364
aF120.87400125
aF116.89095848
aF116.90033748
aF116.1008735
aF115.02940917
aF115.0102132
aF116.77684444
aF114.02517376
aF113.63380693
aF112.74305512
aF116.45648753
aF116.74701776
aF114.64744802
aF115.02820204
aF112.91348802
aF115.07028632
aF117.39932141
aF116.46494424
aF120.01599009
aF120.78989524
aF120.5119687
aF118.03553749
aF117.80591032
aF119.7058001
aF119.74172621
aF119.15775716
aF119.07635442
aF118.68570734
asVETH-TIME
p107
(lp108
F89.1824001
aF89.1824001
aF87.86021394
aF87.86021394
aF42.64000934
aF42.64000934
aF42.39919083
aF42.36963999
aF42.36963999
aF37.64034616
aF33.3323443
aF33.3323443
aF33.10762818
aF33.10762818
aF33.10762818
aF33.10762818
aF33.10762818
aF33.10762818
aF33.10762818
aF33.28588523
aF33.28588523
aF33.28588523
aF33.28588523
aF33.28588523
aF33.28588523
aF33.28588523
aF33.28588523
aF32.29199951
aF32.29199951
aF32.29199951
aF31.71732172
aF31.71732172
aF31.71732172
aF31.61344531
aF31.13086812
aF30.66158867
aF30.66158867
aF30.20145026
asVBTC-EBST
p109
(lp110
F17.52199369
aF17.48555716
aF17.46942468
aF17.72434224
aF17.45474704
aF17.86484738
aF17.32579795
aF17.34988252
aF15.71845251
aF15.62788558
aF16.17308922
aF16.17604222
aF16.19988542
aF16.07367528
aF16.02242097
aF16.02242097
aF16.01983779
aF15.83889209
aF15.83889209
aF15.84449198
aF15.72145607
aF15.65388824
aF15.65388824
aF15.64393825
aF14.79750102
aF14.79750102
aF13.28591992
aF12.45032027
aF12.12377531
aF12.5676394
aF12.62155885
aF12.46437264
aF12.43252451
aF12.86601983
aF12.91328525
aF13.08264523
aF13.00670032
aF12.98877663
asVBTC-START
p111
(lp112
F2.72266306
aF3.05911791
aF3.06851667
aF3.06851667
aF3.02790144
aF3.02790144
aF3.02488778
aF3.02705727
aF3.02541892
aF3.02541892
aF3.02342968
aF3.01636799
aF3.06466589
aF3.06466589
aF3.32452197
aF3.36992112
aF3.3372849
aF3.3372849
aF3.30607241
aF3.31782244
aF3.30463436
aF3.30463436
aF3.30374525
aF3.294687
aF3.45536199
aF3.43887819
aF3.4649856
aF3.48733905
aF3.31701209
aF3.33130365
aF3.31353579
aF3.31353579
aF3.31787631
aF3.30013874
aF3.33251888
aF3.31164363
aF3.32206726
aF3.33018513
asVBTC-FLO
p113
(lp114
F60.43177243
aF61.94074197
aF61.92681961
aF59.76918584
aF60.35206387
aF60.63054638
aF60.51560769
aF61.03961088
aF60.99535494
aF61.6026748
aF64.26901466
aF69.76502983
aF73.20353823
aF75.61783562
aF77.47810891
aF77.71928745
aF78.9521719
aF80.0645293
aF80.83841236
aF81.53383909
aF82.52051665
aF84.86559592
aF86.72208688
aF91.18297074
aF97.88397335
aF99.16935324
aF107.54117089
aF117.42874013
aF124.3025287
aF135.54620304
aF141.56690217
aF153.12628538
aF160.64083966
aF168.93707971
aF172.39735258
aF175.63738863
aF183.3830248
aF189.35402735
asVBTC-MYST
p115
(lp116
F52.37690011
aF52.44294605
aF51.78102338
aF51.18113798
aF50.89100569
aF50.36465443
aF49.71965465
aF48.41340994
aF48.26254345
aF48.23452012
aF48.28294888
aF46.01737728
aF45.61374619
aF46.34696685
aF46.13733506
aF40.50524261
aF40.17319922
aF40.40904002
aF37.94568989
aF37.85666787
aF35.88134095
aF34.50652906
aF34.85680313
aF35.17196392
aF35.60652536
aF33.364335
aF39.68687519
aF40.07604318
aF40.2161591
aF40.1728915
aF39.63035503
aF38.18207147
aF37.57217355
aF38.03868124
aF38.0934051
aF37.92893705
aF37.69890292
aF37.81911207
asVBTC-MCO
p117
(lp118
F1081.27286503
aF1035.84034825
aF1019.72100367
aF991.54094285
aF969.84971387
aF916.66905519
aF881.0288241
aF849.96485429
aF820.84859598
aF789.74342971
aF744.34430137
aF733.81973712
aF732.36126158
aF721.50833639
aF713.25197431
aF698.28120566
aF678.04102864
aF667.45154363
aF661.05324101
aF658.39984515
aF605.90498795
aF603.87537941
aF598.92473531
aF597.69437278
aF596.10014939
aF580.42926964
aF580.65345548
aF580.95321324
aF580.64202962
aF575.70120581
aF573.96511388
aF570.11590348
aF566.99520067
aF554.53409932
aF549.77541399
aF542.91662661
aF529.88467796
aF524.84226301
asVBTC-WINGS
p119
(lp120
F146.00426479
aF142.7191567
aF128.00310967
aF126.41902836
aF123.69365684
aF120.14402393
aF117.75539673
aF108.3386491
aF107.23868705
aF106.43028337
aF104.95864594
aF103.53560404
aF103.51469369
aF106.44400926
aF106.55134068
aF107.39941073
aF106.16096988
aF106.01376229
aF101.42724231
aF97.95155847
aF97.81104702
aF98.26606488
aF95.27608933
aF95.2638111
aF95.36442208
aF95.86192697
aF95.06566941
aF94.59982065
aF93.77016669
aF93.84269601
aF96.44936058
aF96.42696039
aF95.84651326
aF94.6926727
aF86.56908758
aF86.11083205
aF86.20353067
aF86.29179309
asVBTC-XMY
p121
(lp122
F6.05832004
aF6.20301357
aF6.18169937
aF6.15441345
aF6.12715678
aF6.11202566
aF5.17357305
aF5.14277096
aF4.55603574
aF4.36582947
aF4.35282012
aF4.45261196
aF3.81810935
aF3.86295143
aF3.77665068
aF3.85792311
aF3.84045835
aF3.84105991
aF4.13541138
aF4.03026771
aF3.88794194
aF3.89934831
aF3.7825946
aF4.04132838
aF4.04421911
aF4.11686305
aF4.12286714
aF4.13404927
aF4.1416138
aF4.15167127
aF4.43986069
aF4.4248376
aF4.86106246
aF4.90642836
aF4.89440233
aF4.89450183
aF4.8410876
aF4.8410876
asVBTC-MTL
p123
(lp124
F1241.10051554
aF1196.80067376
aF1158.78115287
aF1135.12733498
aF1101.78657393
aF1057.28352618
aF1048.37992382
aF990.10463164
aF953.14265346
aF951.91850059
aF935.14221538
aF925.93494602
aF918.45770842
aF901.37594417
aF892.22518715
aF888.73074716
aF892.30870907
aF884.35771373
aF884.50107688
aF896.13211553
aF883.5649565
aF874.35647649
aF837.61411179
aF831.24260922
aF813.3438289
aF806.67110094
aF789.59931484
aF786.90040807
aF785.60040591
aF780.71790137
aF786.09655969
aF753.58824811
aF745.64464886
aF719.59962176
aF713.83105863
aF703.65933512
aF698.20861828
aF660.09105429
asVETH-TRST
p125
(lp126
F76.70105075
aF75.5583391
aF75.5583391
aF75.16126342
aF75.2402634
aF75.2402634
aF66.44283189
aF66.19967344
aF66.19967344
aF66.16557932
aF66.16879532
aF66.14915451
aF66.25055467
aF67.73935764
aF67.73935764
aF67.73935764
aF63.0073529
aF63.51077142
aF63.51077142
aF63.51077142
aF63.51471166
aF62.96987508
aF62.45770407
aF62.93853725
aF62.93853725
aF62.93853725
aF62.75050089
aF62.75050089
aF62.76047551
aF62.76047551
aF64.90516757
aF65.10745347
aF65.40494195
aF65.40494195
aF65.65369051
aF65.65448851
aF65.74663721
aF65.74663721
asVBTC-PDC
p127
(lp128
F52.67453559
aF52.6319667
aF52.4971756
aF49.89688573
aF47.41970896
aF46.50555476
aF43.89802434
aF43.76089585
aF43.26336251
aF43.34209659
aF42.44121994
aF42.41855852
aF42.41855852
aF41.03594588
aF40.4910679
aF40.42162271
aF40.455287
aF40.02796039
aF39.76585569
aF39.19895426
aF38.09461631
aF37.89197049
aF37.92719391
aF37.88505411
aF37.75865371
aF34.73157123
aF29.5907914
aF27.43649656
aF27.14763351
aF26.96967201
aF24.74799225
aF21.61849012
aF21.46315762
aF21.44033365
aF21.39069377
aF21.13300514
aF21.14366115
aF20.85429389
asVETH-CVC
p129
(lp130
F687.12746715
aF687.16492714
aF678.31878762
aF675.95421381
aF663.00775954
aF537.99209881
aF433.35288474
aF420.33994945
aF412.79288041
aF410.41750442
aF407.96584942
aF407.96584942
aF411.37108213
aF408.50419213
aF409.06394021
aF418.69162948
aF434.5373128
aF454.79186783
aF462.90741767
aF467.87672279
aF469.62416063
aF494.01618841
aF527.17999768
aF538.25091008
aF544.80375631
aF543.52909839
aF541.6440671
aF536.59012821
aF542.3942682
aF542.56768924
aF539.98643186
aF541.53384963
aF548.30447104
aF548.39158304
aF543.7735949
aF573.95041879
aF580.78053783
aF572.73379691
asVETH-XMR
p131
(lp132
F541.71812312
aF531.97714172
aF528.30467046
aF528.30467046
aF524.57440078
aF478.62480925
aF454.27241054
aF439.89667371
aF439.89667371
aF429.44831113
aF429.44831113
aF426.95937264
aF433.40620934
aF433.40620934
aF430.13184367
aF428.07817166
aF427.06417334
aF477.33891545
aF478.03855968
aF474.83124496
aF456.58421183
aF456.58421183
aF457.4417394
aF457.25988892
aF456.93087859
aF456.82868373
aF456.82868373
aF448.90825354
aF448.13727238
aF444.66489791
aF439.76518573
aF435.87832804
aF382.98454165
aF367.03665336
aF369.02877589
aF369.05606057
aF371.52360952
aF371.82657631
asVBTC-PPC
p133
(lp134
F39.24292717
aF37.91941965
aF37.77470387
aF37.72733798
aF37.07084861
aF36.77982545
aF35.37264264
aF33.22185966
aF33.00869246
aF32.99464244
aF32.96047346
aF32.30027771
aF32.03611749
aF31.97692774
aF32.00182225
aF31.31099132
aF31.15164584
aF30.05314032
aF30.1705718
aF30.50970752
aF30.41738781
aF30.60156758
aF30.40332809
aF30.17025008
aF29.52639469
aF29.50171017
aF29.71269534
aF30.28074451
aF30.0135811
aF29.95801982
aF29.46114927
aF29.17129306
aF29.17129306
aF28.85985891
aF27.98717381
aF27.98717381
aF28.45349208
aF28.3523743
asVETH-LTC
p135
(lp136
F3818.98386938
aF3692.57329864
aF3490.08268484
aF3435.45867398
aF3324.21998303
aF3221.09108927
aF3181.49601029
aF3194.99147135
aF3117.98881423
aF3039.935872
aF3033.40184516
aF3033.40184516
aF2875.40524634
aF2768.48512707
aF2757.40174267
aF2691.32256134
aF2792.64690351
aF2783.34104904
aF2616.66659582
aF2614.9196918
aF2575.81586896
aF2566.79899236
aF2545.71692645
aF2554.32654588
aF2554.20891081
aF2535.63060774
aF2484.83708974
aF2503.20766989
aF2509.79739817
aF2507.86549294
aF2459.13462694
aF2459.13462694
aF2427.65453876
aF2439.7164469
aF2430.87394266
aF2469.03862472
aF2466.80250469
aF2403.0092424
asVUSDT-LTC
p137
(lp138
F6301469.45577189
aF6110488.67972452
aF5966380.09023697
aF5850245.66525844
aF5687595.96311259
aF5536665.910716
aF5146266.13859846
aF4886866.00192221
aF4717407.40597502
aF4531573.26677928
aF4392736.38763828
aF4228859.0270767
aF4108631.57251939
aF4054648.06474401
aF3914163.61790378
aF3847757.74184053
aF3765796.61206863
aF3665020.59938703
aF3583591.76863124
aF3535249.97209006
aF3505907.07111002
aF3476346.61530257
aF3458986.68407135
aF3428240.14677885
aF3202498.03106131
aF3144425.28244401
aF3055869.79493689
aF3049833.92679454
aF3043996.33830595
aF3083539.94210403
aF3071258.86379703
aF2954904.13513293
aF2897546.66704365
aF2875997.45467337
aF2867416.46291189
aF2823086.35408295
aF2781315.41436538
aF2848926.28346287
asVBTC-ADT
p139
(lp140
F17.80101752
aF17.83182117
aF16.91657125
aF16.48771024
aF16.5066874
aF16.15946092
aF15.87845122
aF15.28233009
aF15.14200167
aF15.10871688
aF15.10869388
aF15.16664974
aF15.35563362
aF15.18846275
aF13.02610326
aF13.11454494
aF13.11454494
aF13.28038085
aF13.01215791
aF13.05733339
aF12.67167183
aF13.36219135
aF13.3798319
aF13.27780865
aF13.71100783
aF13.25968979
aF12.7260282
aF12.74991067
aF12.74574667
aF12.24619451
aF12.46905509
aF12.46987758
aF12.66498315
aF12.70626964
aF14.00067646
aF14.48672189
aF14.88179062
aF14.87744651
asVBTC-LUN
p141
(lp142
F512.56656609
aF488.72117133
aF480.41477647
aF471.30747512
aF464.22450055
aF445.68331527
aF438.20960976
aF429.7040499
aF425.03891673
aF418.30299103
aF407.16552979
aF404.02593845
aF404.81202363
aF400.01100831
aF400.01100831
aF391.11879346
aF390.00900751
aF389.6994209
aF382.53299383
aF382.53299383
aF370.78639186
aF371.04051311
aF362.30044664
aF342.46528581
aF338.35776891
aF329.31992154
aF327.86590237
aF327.86590237
aF326.8245562
aF329.59941023
aF330.34596236
aF308.96870141
aF304.31684811
aF303.96710848
aF299.40680965
aF297.44188849
aF294.49590307
aF296.10263061
asVBTC-DGB
p143
(lp144
F619.4798183
aF597.25496723
aF576.09480145
aF561.83962768
aF544.59470128
aF534.8116472
aF494.27105315
aF482.56864316
aF468.4583198
aF462.04932005
aF437.33487352
aF424.50319451
aF420.94095171
aF417.74978348
aF414.5281509
aF412.09668976
aF405.72629198
aF401.17994662
aF392.1917909
aF389.41222522
aF382.48887648
aF373.64127196
aF348.4076209
aF336.71569297
aF322.36125597
aF315.3078126
aF309.24094552
aF309.8352553
aF305.56004338
aF304.98847873
aF297.42321923
aF295.48802934
aF287.98815338
aF282.3971283
aF278.21933554
aF279.52793716
aF281.22310386
aF282.61922283
asVETH-ETC
p145
(lp146
F748.69510459
aF723.20335368
aF706.35547506
aF706.35547506
aF683.90747599
aF577.77685308
aF576.72476339
aF571.59636999
aF560.81166915
aF537.9446969
aF516.95869994
aF486.09386905
aF486.09386905
aF449.05903372
aF393.93625292
aF393.62204197
aF393.62204197
aF474.90971127
aF474.85868846
aF449.80929485
aF446.80407468
aF443.91307428
aF431.59949476
aF504.84641014
aF510.66845323
aF508.88247062
aF465.16351958
aF467.06351956
aF472.42634822
aF480.62395447
aF522.40318434
aF521.10653385
aF521.10653385
aF526.40498721
aF526.69398648
aF451.44520742
aF453.61591356
aF453.82929572
asVBTC-RISE
p147
(lp148
F293.69011342
aF291.16086071
aF286.67434063
aF284.01097806
aF259.68183243
aF249.32621544
aF244.59879594
aF243.00011745
aF243.63010156
aF235.58664463
aF228.95686672
aF228.94118365
aF227.63475703
aF224.89425089
aF223.46242077
aF217.61824116
aF217.41860983
aF213.49976731
aF214.46494706
aF211.33022859
aF206.6523395
aF203.64230311
aF198.58372071
aF198.0451479
aF192.33451904
aF190.60805788
aF188.92347973
aF188.46861167
aF184.18658308
aF182.73589434
aF182.57151213
aF179.74108811
aF177.34044542
aF173.02189792
aF172.89870908
aF171.39089802
aF172.01499433
aF172.49552722
asVETH-PTOY
p149
(lp150
F68.39381286
aF68.05026576
aF68.36228947
aF68.36228947
aF68.03458947
aF49.87289229
aF39.63582053
aF40.67784296
aF43.36494633
aF39.00204857
aF39.00204857
aF38.27402623
aF37.06285499
aF37.06285499
aF37.00353838
aF36.58751739
aF39.5799671
aF39.61769412
aF39.61769412
aF39.61883668
aF39.61883668
aF39.06499668
aF39.26449667
aF39.25973703
aF39.2628085
aF39.2628085
aF39.2628085
aF39.2628085
aF37.8953489
aF37.8953489
aF37.8953489
aF38.18193786
aF38.18193786
aF38.18193786
aF37.07248788
aF37.07248788
aF37.07248788
aF37.07248788
asVBTC-ADX
p151
(lp152
F684.34858008
aF677.49886074
aF652.78505156
aF643.33108684
aF627.14411042
aF599.80430069
aF567.63010541
aF557.47656986
aF544.15970106
aF519.22269184
aF515.07385683
aF507.36117876
aF506.2348953
aF498.65645414
aF489.78843869
aF480.75970849
aF476.05707858
aF443.84294003
aF440.95353669
aF434.36379663
aF434.63230722
aF434.68878574
aF433.93260846
aF434.54699561
aF437.40306136
aF435.28121877
aF431.7931573
aF429.16764214
aF426.14829543
aF429.36605503
aF430.29461312
aF426.9059856
aF428.41480819
aF428.79182833
aF418.25615315
aF416.45408551
aF413.91997275
aF411.82436506
asVBTC-VIA
p153
(lp154
F57.63100345
aF57.56713221
aF57.00972486
aF52.99487716
aF46.47608549
aF44.28523452
aF42.66306018
aF41.82378268
aF38.59688118
aF33.5535929
aF33.30184311
aF32.04261082
aF32.32407901
aF29.68513205
aF27.08776062
aF26.49307057
aF25.88746757
aF26.3302553
aF26.30884241
aF25.27851995
aF24.69097435
aF24.61695609
aF24.59882823
aF24.59098165
aF24.83449202
aF24.83449202
aF24.3347446
aF24.20000811
aF24.20590592
aF24.07274735
aF24.23014095
aF24.58166236
aF24.55333849
aF24.5715732
aF22.20862182
aF22.21685619
aF22.21685619
aF20.75014947
asVBTC-PINK
p155
(lp156
F66.07465891
aF66.07002391
aF66.04493132
aF64.31381396
aF62.95418129
aF57.5783942
aF54.76573471
aF48.49922895
aF45.8728441
aF43.51207651
aF39.96578593
aF37.48431399
aF36.4075208
aF36.48208065
aF36.3076398
aF35.75181034
aF35.70154634
aF33.18757537
aF32.31873348
aF32.31873348
aF31.86727757
aF31.63242061
aF31.63242061
aF31.33194661
aF31.15575759
aF31.52246862
aF31.70506859
aF31.69577121
aF31.07761173
aF30.05545894
aF27.77254103
aF27.54476258
aF26.95125297
aF25.96903235
aF25.44848596
aF25.42110351
aF25.92664077
aF26.14069568
asVBTC-PIVX
p157
(lp158
F310.46631077
aF306.88372911
aF298.51041678
aF293.1708747
aF284.38671692
aF273.09472189
aF268.37230424
aF253.60474769
aF243.88581419
aF237.43394508
aF236.36433806
aF234.02437508
aF240.53898115
aF235.53370932
aF232.35884772
aF230.42780378
aF229.69436899
aF222.97605039
aF220.27532732
aF216.41540799
aF213.54614332
aF208.97600228
aF207.62173381
aF206.09826823
aF205.82745934
aF203.484305
aF198.90007111
aF196.78330852
aF192.57870887
aF191.92706556
aF189.58600306
aF188.67288964
aF187.67585451
aF186.09911064
aF186.15605175
aF185.12096121
aF184.3768906
aF183.29690889
asVETH-GNT
p159
(lp160
F733.11263116
aF733.11263116
aF693.84334977
aF697.92008757
aF655.670646
aF602.26619297
aF593.11228724
aF561.61901415
aF559.54276823
aF549.33530655
aF541.25408794
aF541.25408794
aF524.27637147
aF515.20534727
aF515.20534727
aF483.45802914
aF483.45802914
aF468.54772948
aF463.64632137
aF424.39116002
aF408.03672256
aF410.22490799
aF409.83642263
aF414.96824266
aF414.96824266
aF431.78428901
aF433.03079613
aF438.97249697
aF431.8882253
aF426.21037254
aF436.24289385
aF434.4895628
aF436.60807084
aF437.48714106
aF437.11584624
aF439.03664689
aF437.92426408
aF438.36703376
asVBTC-DTB
p161
(lp162
F9.45287251
aF9.45287251
aF9.27875308
aF7.65699919
aF7.65699919
aF7.61770916
aF6.70092921
aF6.39263735
aF6.20602309
aF5.9879153
aF6.16283968
aF6.33245243
aF6.43106685
aF6.45252059
aF6.46137347
aF6.43798128
aF6.76667157
aF7.02466541
aF7.01739787
aF6.94705313
aF6.9397693
aF7.16105231
aF7.15276329
aF7.15373742
aF7.15373742
aF7.15373742
aF7.41877457
aF7.42698831
aF7.73874243
aF7.75674887
aF7.78154798
aF7.88410877
aF7.8835816
aF7.88723486
aF7.92209002
aF8.19413171
aF8.22841493
aF8.23341493
asVBTC-NXS
p163
(lp164
F130.31836891
aF129.88973957
aF127.88271317
aF122.75355057
aF117.19128692
aF100.47055956
aF92.70251644
aF88.71651885
aF87.64007157
aF86.65235828
aF86.84073539
aF84.34106321
aF85.0472395
aF81.97975791
aF82.89587019
aF84.0412713
aF83.32132425
aF81.80284605
aF80.98344918
aF79.63555771
aF79.91007399
aF79.57284026
aF77.17688818
aF76.78222031
aF76.77863335
aF76.80140877
aF76.74525969
aF77.59762517
aF79.10883547
aF80.08204004
aF79.26023047
aF79.25678234
aF81.24320091
aF80.20886921
aF79.36964748
aF79.34035175
aF78.80334959
aF78.22858846
asVBTC-AGRS
p165
(lp166
F5.6191605
aF5.6191605
aF5.60400295
aF5.53977226
aF5.53988041
aF5.53551964
aF5.53551964
aF5.50565608
aF5.50565608
aF5.37176614
aF5.7843355
aF5.78487954
aF5.77985789
aF5.70076456
aF5.70076456
aF4.22497244
aF4.22497244
aF3.28480837
aF3.24476408
aF3.24476408
aF3.2414693
aF3.25197464
aF3.16565598
aF3.16565598
aF3.15438897
aF3.13176629
aF3.13176629
aF2.99455825
aF2.82472697
aF2.82384538
aF2.82384538
aF2.82181223
aF2.8143681
aF2.82042722
aF2.82741354
aF2.82741354
aF2.83519174
aF2.78881774
asVBTC-GEO
p167
(lp168
F7.82909909
aF7.46119813
aF7.39260561
aF4.9490773
aF4.9490773
aF4.81906603
aF4.75379539
aF4.37869016
aF5.12406175
aF12.27285685
aF15.6693257
aF15.82817665
aF16.07429347
aF16.38943486
aF16.51132779
aF17.17842288
aF17.4351507
aF17.43656619
aF17.50045082
aF17.52344712
aF17.55027788
aF17.5906127
aF17.50931485
aF17.61094332
aF17.48678801
aF17.48097394
aF17.45683484
aF17.46490729
aF17.49330681
aF17.46794352
aF17.46983775
aF17.44864148
aF17.46568468
aF17.46606863
aF17.46947108
aF17.57372085
aF17.71225271
aF17.90135506
asVBTC-SHIFT
p169
(lp170
F44.93678098
aF44.99159042
aF44.84711247
aF44.75055604
aF44.43575998
aF44.0642853
aF43.1950445
aF43.06039694
aF42.04613102
aF43.0802192
aF43.04451699
aF43.34526655
aF42.97453117
aF42.60876024
aF42.13101473
aF41.53428435
aF40.23406487
aF40.2621017
aF40.33483812
aF40.38619381
aF41.37725616
aF41.42026598
aF41.59800097
aF41.5111455
aF41.69459106
aF41.69562292
aF41.91052806
aF42.18091113
aF42.40366353
aF41.36893735
aF40.45409252
aF40.48243919
aF40.47740507
aF40.50971734
aF41.8815031
aF41.88181133
aF41.89625621
aF41.86178843
asVBTC-SC
p171
(lp172
F546.80816141
aF536.0677416
aF532.92123006
aF514.62301329
aF509.27236993
aF478.85845379
aF465.2375112
aF462.23094993
aF460.74263417
aF455.82431805
aF453.78928328
aF451.54852779
aF450.87836067
aF444.81332009
aF444.1055133
aF438.0608843
aF363.80593773
aF326.49905449
aF315.79832764
aF302.41143458
aF287.65249042
aF281.37572242
aF274.4612586
aF269.45006406
aF265.00067777
aF262.90943952
aF258.48962248
aF254.6872103
aF254.01391214
aF250.35675831
aF251.23524932
aF249.22885738
aF248.76849232
aF238.43003424
aF231.26390159
aF230.89305566
aF228.90349684
aF230.83307603
asVBTC-TIME
p173
(lp174
F38.87821899
aF38.71992118
aF38.71992118
aF37.88848916
aF28.92681255
aF28.92681255
aF26.46809422
aF25.03586455
aF24.79496758
aF24.62942291
aF24.67462073
aF24.59909129
aF24.46683374
aF24.05976053
aF23.88565164
aF23.79926999
aF23.79926999
aF23.48311065
aF23.492235
aF23.03378661
aF22.41536294
aF21.95860531
aF21.95860531
aF20.84674752
aF20.82858161
aF20.82858161
aF20.84224363
aF20.29066255
aF20.28577903
aF20.39018369
aF20.37523427
aF20.37523427
aF20.29316616
aF20.36550943
aF20.36902352
aF20.40013202
aF20.39861433
aF20.39861433
asVBTC-CLUB
p175
(lp176
F12.30999627
aF12.34979175
aF12.38575831
aF12.51631318
aF13.17162166
aF13.44994694
aF13.82173207
aF13.97192121
aF14.07927193
aF19.78404931
aF21.86506764
aF22.41996669
aF22.62396372
aF22.78434804
aF24.58220572
aF24.59943378
aF24.63913982
aF24.85181184
aF24.86016694
aF24.8604361
aF24.86525663
aF24.97115917
aF25.23373992
aF25.28620213
aF25.30717954
aF26.92982382
aF26.93259
aF26.93585012
aF26.93527647
aF27.03957235
aF27.1894053
aF27.12334101
aF27.12334101
aF27.12334101
aF27.2388179
aF27.24013765
aF27.27333366
aF27.30402482
asVETH-CFI
p177
(lp178
F76.60335681
aF76.25958026
aF76.25958026
aF76.11150842
aF75.44916127
aF75.44916127
aF73.38044363
aF67.03198883
aF67.03198883
aF66.5181606
aF69.80881351
aF67.778185
aF67.778185
aF68.92026859
aF69.29680543
aF69.48744407
aF69.1358154
aF63.70884762
aF63.73844722
aF63.73844722
aF63.73844722
aF60.95748021
aF58.11249922
aF58.11249922
aF56.35904773
aF56.09351071
aF56.09351071
aF56.09351071
aF32.06462175
aF32.22651422
aF32.22651422
aF35.34129915
aF36.09720523
aF35.69798428
aF35.69798428
aF35.75518388
aF35.75518388
aF34.59927568
asVBTC-AUR
p179
(lp180
F13.73279416
aF13.82827306
aF13.82937305
aF14.06253182
aF14.05155587
aF14.07274691
aF14.08028462
aF14.0818172
aF14.08683745
aF14.07493892
aF14.07493892
aF14.07493892
aF14.076274
aF14.07817412
aF14.07190144
aF14.07222671
aF14.13351652
aF14.21439798
aF14.21932313
aF14.21896233
aF14.00906774
aF13.99824886
aF13.99146599
aF13.93453803
aF13.93624968
aF13.91595368
aF13.91829202
aF13.90735259
aF13.90664187
aF13.90554577
aF13.89314764
aF13.89393976
aF13.89085501
aF13.89085501
aF13.89085501
aF13.88544152
aF13.83901527
aF13.84074388
asVBTC-EXP
p181
(lp182
F80.81492859
aF80.82217667
aF81.08225825
aF84.1452021
aF84.83234324
aF81.48578755
aF82.80343854
aF81.58801361
aF78.29679302
aF75.27531506
aF74.10562395
aF74.19825193
aF70.72685286
aF71.11072906
aF70.21862632
aF70.3807884
aF70.2866762
aF69.23172739
aF68.4965445
aF64.5530225
aF62.85334646
aF60.83965498
aF62.61955081
aF62.82974881
aF62.74293783
aF60.95869158
aF60.95776875
aF60.50129847
aF60.47752992
aF60.80556612
aF61.71409901
aF61.4851447
aF63.85473348
aF64.25148751
aF64.27326058
aF64.44064871
aF64.28561863
aF63.91539021
asVBTC-NXT
p183
(lp184
F278.50594305
aF265.23318923
aF253.59198332
aF246.75115396
aF238.27360599
aF221.3119832
aF223.65293179
aF224.56794066
aF225.26338455
aF226.64739924
aF227.90148907
aF228.86898208
aF231.32379576
aF232.18430696
aF232.75083736
aF233.7592476
aF239.17159219
aF240.14109324
aF241.52994197
aF243.74251569
aF244.45962522
aF245.68525622
aF247.31715252
aF249.95796578
aF252.8999635
aF253.49676963
aF253.5416643
aF255.29825099
aF255.80535262
aF257.56940839
aF258.20533381
aF259.9473808
aF263.20404565
aF263.391647
aF263.52079025
aF259.6379388
aF244.93116174
aF239.52545496
asVBTC-XLM
p185
(lp186
F150.13637981
aF147.33319071
aF143.76830229
aF141.00188859
aF132.35672582
aF129.60344098
aF120.64549707
aF116.69504145
aF110.00825669
aF109.08839733
aF108.27494746
aF107.7120003
aF111.03262035
aF110.24973437
aF110.01379928
aF109.48643223
aF108.89732408
aF110.03053538
aF109.24597232
aF107.27946127
aF108.33487366
aF110.16147605
aF109.1527116
aF108.77355162
aF107.95310488
aF108.51093873
aF108.63879892
aF107.80410459
aF108.07856402
aF104.23320531
aF105.56565603
aF105.66231228
aF105.68290951
aF103.20937389
aF103.66415296
aF104.08208641
aF104.15630889
aF103.88326816
asVETH-GNO
p187
(lp188
F83.28228113
aF83.28228113
aF83.28228113
aF82.87326915
aF82.87326915
aF82.87326915
aF82.87326915
aF78.90044399
aF78.82463399
aF78.82463399
aF78.17288843
aF77.6081952
aF72.94955613
aF72.94955613
aF72.94955613
aF75.38711525
aF75.38711525
aF75.92166714
aF76.02956489
aF76.02956489
aF76.02956489
aF76.02956489
aF76.02956489
aF76.02956489
aF76.02956489
aF64.22651526
aF64.22651526
aF63.99419302
aF63.99419302
aF64.55780019
aF64.91425699
aF64.91425699
aF64.91425699
aF64.91425699
aF64.91425699
aF64.91425699
aF64.91425699
aF64.91425699
asVBTC-DOPE
p189
(lp190
F2.30550539
aF2.18282505
aF2.18282505
aF2.18282505
aF2.1644011
aF2.59697591
aF2.5320812
aF2.5320812
aF2.5320812
aF2.44975268
aF2.46609024
aF2.46609024
aF2.46150252
aF2.4415868
aF2.42456868
aF2.42456868
aF2.42751868
aF2.33568536
aF2.33782808
aF2.33782808
aF2.31535304
aF2.31218703
aF2.15078168
aF2.16885783
aF2.16885783
aF2.11338863
aF2.11539803
aF2.11539803
aF2.05303394
aF2.03590508
aF2.1028071
aF2.10360188
aF2.28210944
aF2.29404944
aF2.30094426
aF2.29997101
aF2.29947206
aF2.29947206
asVETH-HMQ
p191
(lp192
F95.88200323
aF95.88200323
aF95.88200323
aF96.10613355
aF97.95166605
aF97.95166605
aF97.41367328
aF97.19533007
aF97.19533007
aF96.42913221
aF96.07509343
aF96.1383025
aF96.19103338
aF96.57993288
aF96.26468668
aF96.26468668
aF95.80592622
aF94.89485163
aF94.04724768
aF94.24631692
aF94.24631692
aF93.2564927
aF93.2564927
aF93.36134226
aF93.36134226
aF93.36134226
aF93.36134226
aF63.65572939
aF63.65572939
aF61.89720325
aF53.28884918
aF43.6056303
aF43.58900384
aF43.58900384
aF43.58900384
aF43.58900384
aF43.54434595
aF43.63097301
asVBTC-POT
p193
(lp194
F12.02611173
aF12.02611173
aF12.22045027
aF12.36595809
aF12.3108096
aF12.34104213
aF12.15787183
aF11.55435877
aF11.32481813
aF11.21767503
aF11.10654173
aF10.93950462
aF10.62819793
aF10.5502127
aF10.5502127
aF10.48491837
aF10.10966788
aF10.06057887
aF9.98201066
aF9.94567974
aF9.93291079
aF10.05259244
aF10.29771086
aF10.35182749
aF10.00494226
aF9.81042252
aF9.83110706
aF9.8784748
aF9.64333519
aF8.94352488
aF8.90170164
aF8.48315082
aF8.50582161
aF8.50582161
aF8.38716589
aF8.38716589
aF8.39939112
aF8.33864582
asVBTC-BNT
p195
(lp196
F82.3480722
aF83.34014095
aF83.38399401
aF113.91334309
aF117.98076468
aF117.81449509
aF113.0309487
aF110.67726237
aF106.95757061
aF101.55882099
aF99.83220254
aF109.65228431
aF108.69061445
aF108.78904674
aF108.78904674
aF108.24136272
aF109.40209976
aF109.03784734
aF109.0577936
aF108.46455955
aF108.37811895
aF105.2254327
aF105.09741296
aF105.10356329
aF103.68720465
aF103.08113352
aF103.25669565
aF103.99972831
aF103.92517297
aF104.0500538
aF104.11292725
aF104.12563902
aF104.08172245
aF105.74304822
aF105.55105444
aF105.67786944
aF106.46103026
aF106.15058627
asVETH-ADX
p197
(lp198
F554.22720004
aF531.94154481
aF466.99422128
aF465.5320963
aF456.47929291
aF457.32624646
aF433.57258906
aF433.57258906
aF424.9101451
aF423.78920483
aF416.92967727
aF416.92967727
aF410.52394155
aF396.82239169
aF396.82239169
aF390.31434839
aF390.31434839
aF387.25447771
aF385.45016648
aF385.45016648
aF381.4292457
aF381.4292457
aF366.79647881
aF367.35106036
aF381.98717057
aF325.09487329
aF325.09487329
aF325.00277455
aF316.10167574
aF315.61138465
aF310.27841239
aF311.28433794
aF311.28433794
aF316.6946589
aF315.48270093
aF340.51028747
aF340.52734853
aF311.96683783
asVBTC-ARK
p199
(lp200
F1559.04883177
aF1590.21981249
aF1607.73269858
aF1645.16519803
aF1655.99917253
aF1666.66817283
aF1692.16345158
aF1700.80700578
aF1716.37857597
aF1729.76297036
aF1747.58286338
aF1808.93822222
aF1823.46474984
aF1823.34141889
aF1797.57428282
aF1821.03593534
aF1826.43826358
aF1842.32242537
aF1853.61585264
aF1865.97738302
aF1875.56121358
aF1889.60661455
aF1938.69571591
aF1947.54531342
aF1949.38790664
aF1999.82153933
aF2000.666207
aF1999.36676519
aF2004.91384553
aF2015.47933847
aF2077.65424755
aF2092.15241914
aF2108.99503439
aF2115.61220815
aF2120.04667045
aF2128.20476663
aF2113.54269363
aF2120.88001508
asVBTC-DRACO
p201
(lp202
F4.14374354
aF4.14088905
aF4.10804909
aF4.10804909
aF3.97524063
aF3.89440921
aF3.87748246
aF3.79973268
aF3.79973268
aF3.7374924
aF3.74186181
aF3.73645986
aF3.73419701
aF3.73419701
aF3.71673701
aF3.66064786
aF3.66064786
aF3.61487658
aF3.55229987
aF3.55229987
aF3.56635601
aF3.51889918
aF3.52961043
aF3.52961043
aF3.82039694
aF3.82471694
aF3.88979539
aF3.80581948
aF3.8074793
aF3.85036813
aF3.83359013
aF3.83888213
aF3.43900639
aF3.43900639
aF3.0192479
aF3.02173982
aF3.02173982
aF3.02173982
asVBTC-ZEC
p203
(lp204
F436.35548851
aF431.90028195
aF426.76324274
aF411.01479101
aF401.99069673
aF355.86122054
aF333.76741624
aF326.63557046
aF322.45961279
aF322.0793722
aF317.68936701
aF312.03617397
aF313.95672198
aF311.26183016
aF308.50678545
aF301.79716614
aF294.64640047
aF288.78124822
aF288.19778324
aF289.44311091
aF286.58007606
aF285.98375834
aF284.94078057
aF285.90157306
aF285.43637033
aF284.42199589
aF284.18479512
aF285.55837151
aF286.92548863
aF287.49446945
aF285.43468962
aF283.96770623
aF276.8858766
aF277.38937086
aF276.2629378
aF275.2653581
aF274.34647859
aF275.19024557
asVBTC-MUE
p205
(lp206
F130.74905085
aF130.22836568
aF130.2514162
aF127.86312041
aF126.71449591
aF120.92467386
aF120.57683239
aF120.57683239
aF117.3875579
aF116.50019632
aF116.31300808
aF114.64089065
aF109.84896218
aF101.99604551
aF100.48176535
aF100.07599963
aF97.72279741
aF97.72402845
aF96.98615797
aF96.32366277
aF95.3339902
aF94.6089885
aF94.7247161
aF96.98487815
aF96.93376757
aF95.5432217
aF95.37370082
aF95.10005952
aF94.78813215
aF94.52297939
aF93.72332872
aF90.98628997
aF87.50582089
aF87.27477869
aF86.85996543
aF86.81703162
aF86.11219577
aF81.90590133
asVBTC-AMP
p207
(lp208
F33.20838357
aF32.71262494
aF31.6923199
aF30.59769037
aF29.79311098
aF28.24947485
aF27.36856534
aF25.76516117
aF23.25753871
aF21.13749071
aF21.29590737
aF19.41350076
aF18.75445325
aF19.59828339
aF21.24682335
aF21.20649785
aF21.83686954
aF22.31575889
aF22.21528748
aF22.25642031
aF23.02291666
aF23.22016116
aF23.33390864
aF23.32875356
aF23.31009545
aF23.15181486
aF22.42844195
aF22.46729583
aF22.66814533
aF22.25998444
aF23.13313887
aF22.89995464
aF22.89441996
aF22.36157256
aF22.45694919
aF22.2930322
aF22.25670848
aF22.25693221
asVBTC-SAFEX
p209
(lp210
F86.54760293
aF86.58817514
aF86.36386313
aF85.88663051
aF83.65342124
aF81.01942778
aF78.06528253
aF76.24328549
aF76.17834411
aF75.22264987
aF75.49701092
aF73.25894824
aF73.6993674
aF73.0663515
aF72.18840411
aF72.12138758
aF70.3183266
aF70.07498603
aF69.36663053
aF69.3262677
aF68.17090967
aF68.12757495
aF68.14483047
aF68.01696471
aF65.87487886
aF64.69598005
aF64.51936132
aF62.17565692
aF61.85332714
aF60.63784631
aF58.28805995
aF58.12407993
aF58.20538532
aF58.7118694
aF60.88763533
aF60.68618337
aF58.48287716
aF57.40544058
asVBTC-OMNI
p211
(lp212
F31.20346285
aF31.07827457
aF30.45646045
aF29.41957332
aF29.41957332
aF28.24243721
aF25.47156305
aF25.56290178
aF24.32184435
aF22.23825158
aF22.12457176
aF20.28043123
aF20.03613191
aF20.37428231
aF19.11614746
aF19.11614746
aF15.6678782
aF15.17992669
aF14.69469054
aF14.69469054
aF13.9329896
aF13.9329896
aF13.37307424
aF12.86401381
aF11.03439565
aF11.03439565
aF10.83615356
aF10.36567958
aF9.89449069
aF9.89563111
aF9.44442741
aF10.12254074
aF10.08890967
aF10.32510025
aF10.39087108
aF10.13860319
aF9.95281429
aF10.45358905
asVBTC-PTC
p213
(lp214
F24.46184304
aF22.61658635
aF22.77553616
aF22.31443238
aF22.01911762
aF21.78793851
aF21.34269596
aF21.34269596
aF21.06791867
aF20.43095131
aF20.30318938
aF19.0510832
aF18.29390565
aF17.96716318
aF16.11582091
aF16.06736769
aF15.44616084
aF14.79401479
aF14.65185214
aF14.56802719
aF14.65540976
aF14.43291109
aF14.43291109
aF14.42467352
aF14.1973361
aF14.07490042
aF14.07490042
aF13.99466409
aF13.704877
aF13.97669762
aF13.91451879
aF13.97639925
aF14.06984202
aF14.83551607
aF14.87887162
aF14.87887162
aF14.86514419
aF14.78808633
asVBTC-LGD
p215
(lp216
F70.13080404
aF67.80825631
aF66.16245651
aF63.20386121
aF61.51661082
aF61.20339436
aF61.61267048
aF61.76387944
aF61.85825532
aF62.03251292
aF63.3786316
aF63.74773071
aF64.18002025
aF63.76785261
aF63.73184667
aF65.60623848
aF65.56676866
aF65.57475918
aF65.64815878
aF65.5918461
aF65.480399
aF65.26636597
aF65.50352821
aF64.90754476
aF65.47679994
aF65.55709622
aF65.2890778
aF65.20053553
aF64.86929672
aF65.44314332
aF66.25167732
aF66.0530892
aF66.88584562
aF67.89001711
aF67.87869404
aF67.90080096
aF67.76672252
aF67.76329382
asVBTC-ARDR
p217
(lp218
F274.19639977
aF262.89658095
aF255.38952108
aF243.15280695
aF234.02835254
aF230.29726198
aF223.9102561
aF212.62200391
aF206.71171648
aF201.9472922
aF199.45884987
aF192.07675675
aF189.8373559
aF187.26709494
aF184.69739848
aF182.7355822
aF181.57197689
aF178.82130555
aF177.63768059
aF174.53881261
aF171.33036704
aF170.33377421
aF166.98960026
aF165.56019002
aF164.5342137
aF159.65818816
aF158.21083343
aF156.44912492
aF154.81431094
aF152.95556247
aF152.83543883
aF152.02586175
aF149.39707216
aF147.93412513
aF146.13603649
aF146.31900636
aF146.10725028
aF144.55928248
asVBTC-SNGLS
p219
(lp220
F52.27529218
aF51.54365998
aF49.89689939
aF48.03932974
aF48.54962844
aF49.31236935
aF49.25470239
aF49.14341144
aF50.61545774
aF50.8523733
aF52.28773232
aF52.52286883
aF53.02181883
aF52.52285048
aF52.84602627
aF53.08134628
aF53.0745642
aF52.57099536
aF52.53032633
aF52.55132637
aF53.77156329
aF54.91967063
aF54.89462152
aF54.77133232
aF54.31409671
aF54.91435636
aF54.68643545
aF54.9099614
aF55.33145711
aF54.77030621
aF54.82154698
aF54.52601095
aF55.1804362
aF55.14157989
aF55.32271608
aF55.42995285
aF55.70120621
aF55.78459835
asVBTC-SLR
p221
(lp222
F41.92306824
aF52.56875614
aF58.89118122
aF61.67573208
aF62.97800579
aF64.54945266
aF64.76021395
aF65.7106819
aF66.20855046
aF67.45993484
aF67.79387914
aF68.14017209
aF68.46066532
aF68.80308706
aF69.01964858
aF69.02759694
aF69.09525665
aF69.52251152
aF69.66623827
aF70.13387843
aF70.5102443
aF70.98728614
aF72.21485103
aF73.01517354
aF73.29536108
aF73.38013681
aF73.36467811
aF72.60793059
aF72.48912929
aF72.9925989
aF73.23993649
aF73.82709252
aF74.1853754
aF76.51588105
aF77.74796351
aF77.80742954
aF79.1250358
aF79.37994958
asVBTC-SLS
p223
(lp224
F3.37687115
aF3.37687115
aF3.36351771
aF3.33806941
aF3.33806941
aF3.33806941
aF3.37463365
aF3.37463365
aF3.3840091
aF3.38465795
aF3.38465795
aF3.38615419
aF3.3165859
aF3.3165859
aF3.25774033
aF3.25774033
aF3.25774033
aF3.25258151
aF3.25313151
aF3.25313151
aF3.25313151
aF3.25313151
aF3.25313151
aF3.25313151
aF3.25313151
aF3.24244101
aF3.17277627
aF3.14278286
aF3.14476952
aF3.14583298
aF3.14583298
aF3.14663087
aF3.14555792
aF3.14867875
aF3.15540613
aF3.15540613
aF3.15540613
aF3.15540613
asVETH-1ST
p225
(lp226
F205.11797186
aF203.16961643
aF203.16961643
aF199.95404619
aF200.4230535
aF196.76818138
aF196.76818138
aF187.61031552
aF175.65503515
aF175.65503515
aF178.12722349
aF156.63853264
aF156.63853264
aF152.88994053
aF154.55700309
aF147.66712419
aF147.66712419
aF167.06755775
aF158.33934868
aF155.71723857
aF152.83787244
aF152.83787244
aF152.83787244
aF152.64030138
aF152.64030138
aF152.3902794
aF152.3902794
aF152.3902794
aF153.25431455
aF153.25431455
aF153.89217953
aF154.2711748
aF154.2711748
aF153.63277728
aF153.51153383
aF148.77063363
aF148.70933663
aF150.65341267
asVETH-PAY
p227
(lp228
F2718.47326383
aF2703.78611531
aF2626.0435344
aF2542.28829521
aF2512.55311777
aF2388.08433649
aF2272.41286534
aF2242.89117334
aF2220.38978673
aF2175.50702966
aF2165.52881605
aF2173.74437324
aF2175.72552088
aF2176.98074918
aF2173.76036766
aF2154.4627995
aF2175.92755181
aF2163.92928944
aF2166.48111523
aF2153.81981705
aF2155.49888578
aF2158.59728558
aF2166.75506066
aF2167.32158837
aF2157.87408103
aF2153.6346696
aF2118.28085708
aF2194.92942958
aF2191.33869415
aF2205.97337244
aF2206.13094769
aF2153.4544322
aF1937.51219039
aF1963.36528754
aF1918.56101285
aF1866.83330064
aF1866.84432907
aF1931.18491693
asVETH-BAT
p229
(lp230
F920.66814727
aF894.13735543
aF858.70029088
aF812.49805607
aF724.98970416
aF623.25991761
aF617.49640166
aF581.3109442
aF541.20592478
aF541.20592478
aF509.90342979
aF509.97442979
aF510.04772109
aF507.84789887
aF494.37214987
aF491.84658014
aF491.84658014
aF481.01181677
aF473.2640597
aF474.02944244
aF476.56928882
aF460.62986561
aF460.65832018
aF461.61212694
aF454.9419456
aF453.04884086
aF449.06091984
aF449.34587131
aF449.34587131
aF428.82748261
aF428.90802292
aF409.19570015
aF409.26850915
aF418.71613013
aF418.71613013
aF405.57419311
aF405.17539289
aF405.17539289
asVBTC-GNT
p231
(lp232
F828.32309843
aF811.78026986
aF799.84433176
aF760.16873372
aF744.64061378
aF701.54028714
aF673.73853255
aF620.6457711
aF590.13760831
aF579.45779385
aF554.29355509
aF548.87775901
aF543.30196732
aF537.93952252
aF528.14979117
aF510.70536866
aF501.89314875
aF477.88411046
aF465.98028136
aF459.20840314
aF451.80302575
aF449.05340711
aF444.37762222
aF441.44055738
aF443.58341978
aF442.08198428
aF442.74446528
aF437.84918418
aF433.64940902
aF428.40527615
aF438.54847007
aF429.55005389
aF427.07784728
aF428.17528185
aF426.7022377
aF423.63282785
aF421.58009599
aF419.14366778
asVBTC-GUP
p233
(lp234
F21.26350256
aF20.7612255
aF20.3040373
aF20.3040373
aF19.61665942
aF18.01565626
aF17.61803628
aF17.61803628
aF16.7922829
aF15.44610859
aF15.23598827
aF15.07683615
aF15.07683615
aF15.04035478
aF14.92066348
aF14.54857658
aF14.39008032
aF14.57783972
aF15.19514159
aF16.03775599
aF16.03775599
aF15.68215614
aF15.87762663
aF15.86470086
aF15.81685879
aF15.86802704
aF15.84370602
aF15.17543332
aF15.12678867
aF15.17705893
aF15.17705893
aF15.08437639
aF15.0369735
aF15.05620182
aF15.06707688
aF15.06674905
aF15.1305894
aF15.10088362
asVETH-SC
p235
(lp236
F289.76019747
aF289.76019747
aF287.87754453
aF287.18560994
aF287.18560994
aF271.60523353
aF262.67141484
aF262.87699675
aF261.68524664
aF261.68524664
aF245.72423308
aF242.36711784
aF242.36934784
aF242.13175048
aF242.24675048
aF246.56055069
aF228.3915063
aF202.28172938
aF201.70400878
aF200.02746567
aF200.02746567
aF138.94670252
aF138.94670252
aF138.53692167
aF138.08009137
aF138.08009137
aF133.26604828
aF133.36206977
aF123.85455395
aF123.54921455
aF124.36899213
aF122.95441113
aF122.95441113
aF121.98083958
aF121.98083958
aF123.71751095
aF123.71872586
aF123.71872586
asVBTC-UNB
p237
(lp238
F44.20555522
aF42.20379675
aF40.9875602
aF37.7003796
aF27.82437477
aF25.87319649
aF21.65908067
aF16.40174258
aF14.26651802
aF13.35241343
aF12.81504231
aF12.58108679
aF13.11626226
aF13.04355801
aF12.44545773
aF12.40333295
aF12.43109162
aF11.99583023
aF11.70646829
aF11.13812928
aF11.13812928
aF11.12488139
aF11.09484632
aF10.21798322
aF10.21798322
aF10.11276304
aF10.11113526
aF10.17497283
aF9.92752584
aF9.92752584
aF10.06799234
aF10.06799234
aF9.23892127
aF9.21799599
aF9.20655762
aF9.22906364
aF9.15703024
aF9.23694553
asVBTC-COVAL
p239
(lp240
F15.27598662
aF15.18136507
aF14.22159807
aF14.22311564
aF12.83156364
aF12.66674853
aF12.66616473
aF12.53977945
aF12.97277476
aF12.09525735
aF11.26513766
aF11.31606225
aF11.45526107
aF11.5113599
aF11.5756103
aF11.69924668
aF11.47654164
aF11.49692786
aF11.49692786
aF11.51014931
aF11.51147303
aF11.48540938
aF11.60485811
aF11.64727871
aF11.56865549
aF11.42250115
aF11.46603341
aF11.46693115
aF11.47308037
aF11.64126089
aF11.7998455
aF11.94784578
aF11.99372898
aF12.05138494
aF12.14739301
aF12.3305424
aF12.45777719
aF12.40105971
asVBTC-ENRG
p241
(lp242
F20.9940686
aF20.88822825
aF20.90610001
aF21.20177162
aF21.11718573
aF21.07385673
aF21.07485672
aF20.72493504
aF20.87990849
aF20.93776746
aF20.97798548
aF21.09655208
aF20.58491284
aF18.17142641
aF18.16558281
aF18.16558281
aF18.07507699
aF18.09273135
aF18.14313789
aF18.14638908
aF18.20153982
aF18.20153982
aF18.1778552
aF18.65501553
aF18.71343275
aF18.71343275
aF18.70931351
aF18.73462738
aF18.7440294
aF18.88385652
aF18.97662692
aF18.97662692
aF18.93225194
aF18.55815639
aF18.57435018
aF18.57815796
aF18.58941742
aF18.58863082
asVETH-FUN
p243
(lp244
F153.32053541
aF153.07956324
aF152.87070063
aF152.87070063
aF142.50612843
aF93.20468286
aF93.20468286
aF95.16786939
aF87.83796091
aF78.11738761
aF85.97614886
aF85.97614886
aF96.14844554
aF96.14844554
aF96.14844554
aF104.0422573
aF104.11365916
aF95.31807992
aF95.31807992
aF109.93929802
aF109.93929802
aF109.93929802
aF109.93929802
aF109.93834046
aF109.43242046
aF109.43242046
aF210.52743585
aF210.7412262
aF210.7412262
aF221.55272633
aF221.55272633
aF223.78585894
aF223.78585894
aF223.78585894
aF222.15445673
aF215.24461359
aF215.24461359
aF215.27517592
asVETH-BCC
p245
(lp246
F1652.80660346
aF1567.33018954
aF1510.89160895
aF1510.19334376
aF1507.38337956
aF1469.0828443
aF1197.25001789
aF1125.09004668
aF1070.59113616
aF1031.63591187
aF1032.17002801
aF1009.12810861
aF1005.8122685
aF1005.17290592
aF987.73049476
aF995.83837556
aF995.83837556
aF988.70043798
aF985.32617445
aF985.33461867
aF987.28708586
aF985.63619652
aF950.48564931
aF950.93789371
aF951.96616953
aF948.11754119
aF968.65491753
aF981.98382892
aF984.60720544
aF1039.12444914
aF1023.71871045
aF1046.14837925
aF1087.31683453
aF1079.61233323
aF1052.99749561
aF1051.38476501
aF1059.23778569
aF1053.55484365
asVBTC-XVC
p247
(lp248
F7.16814423
aF7.16814423
aF6.79154595
aF6.7005287
aF6.56371027
aF6.56371027
aF6.5076577
aF6.5032087
aF6.5032087
aF6.45840454
aF6.45158693
aF6.44132054
aF6.4425584
aF6.4425584
aF6.36264481
aF6.21368767
aF6.17208949
aF6.17208949
aF6.02782185
aF5.86250449
aF5.09884236
aF4.75887983
aF4.21898034
aF3.62775049
aF3.56437417
aF3.57082348
aF3.53805242
aF3.09181565
aF3.00848272
aF3.00848272
aF3.11579339
aF3.11579339
aF2.96180954
aF2.96180954
aF2.34818226
aF2.24002582
aF2.24715391
aF2.24715391
asVBTC-RADS
p249
(lp250
F38.26280158
aF38.23215198
aF32.76708909
aF31.62502377
aF31.42894099
aF30.39918207
aF30.4072965
aF25.70229257
aF24.61689733
aF23.64647259
aF22.94141385
aF22.9131853
aF22.9131853
aF22.7803459
aF22.51107016
aF22.51107016
aF20.62018973
aF20.62018973
aF19.38610491
aF19.36350959
aF19.36350959
aF19.26198177
aF17.91859727
aF19.41459891
aF19.45047437
aF19.44947438
aF19.56280798
aF19.58953049
aF19.61626229
aF19.62379557
aF19.62843524
aF19.64370641
aF19.77256684
aF19.60517944
aF19.61124367
aF19.73761444
aF19.84940195
aF20.39980345
asVBTC-XVG
p251
(lp252
F771.67409972
aF764.77116416
aF735.33856301
aF702.62167028
aF672.05375611
aF643.62749589
aF602.13349744
aF588.71391174
aF580.15526794
aF571.05366113
aF564.59460896
aF560.03974538
aF554.93164707
aF551.5705014
aF544.20511554
aF537.15082128
aF531.11169682
aF532.30245586
aF530.94734959
aF525.86624479
aF521.63570581
aF516.41771796
aF513.44909364
aF518.72202166
aF519.19928731
aF513.24733101
aF509.01481121
aF505.8559943
aF507.7126644
aF507.81383448
aF508.23293852
aF509.14223558
aF509.25715255
aF506.1878216
aF504.71310898
aF507.57408103
aF501.88721705
aF504.56568085
asVETH-LGD
p253
(lp254
F40.89343065
aF40.89343065
aF40.89343065
aF40.89343065
aF40.89343065
aF40.93466691
aF40.93466691
aF38.36717647
aF31.90539743
aF31.90539743
aF30.81385721
aF30.81385721
aF30.81385721
aF30.81385721
aF30.86069041
aF30.86069041
aF30.86069041
aF30.86069041
aF30.86069041
aF30.86069041
aF30.86069041
aF29.70763253
aF29.70763253
aF29.70763253
aF29.70763253
aF29.70763253
aF29.6958348
aF27.85569786
aF27.85569786
aF27.85569786
aF27.84673542
aF26.9982086
aF26.9982086
aF27.1574586
aF27.1574586
aF27.1574586
aF27.1574586
aF27.1574586
asVBTC-EFL
p255
(lp256
F28.66149237
aF28.66583876
aF28.66583876
aF28.68441574
aF28.6852372
aF28.65184042
aF28.18356413
aF28.18310661
aF28.20613768
aF28.13001977
aF28.13001977
aF28.13001977
aF28.0795904
aF28.0795904
aF27.94106363
aF10.86681863
aF10.86681863
aF7.39270567
aF7.05458591
aF6.85188717
aF6.85188717
aF6.29473209
aF6.16454632
aF6.18621791
aF6.18489053
aF6.18489053
aF5.64826503
aF5.53386603
aF5.4531695
aF5.46359964
aF5.43395285
aF5.43395285
aF5.27005306
aF5.25699975
aF5.25699975
aF5.26454131
aF5.25748436
aF5.25075793
asVETH-SNGLS
p257
(lp258
F80.66645654
aF80.66645654
aF75.77062049
aF75.83632049
aF75.83632049
aF75.70988148
aF76.3773856
aF75.53518879
aF76.02709435
aF76.70597898
aF68.25210633
aF68.97389982
aF71.22492774
aF68.48665351
aF69.3010445
aF70.37295272
aF67.85651821
aF67.20061481
aF65.96190545
aF65.96190545
aF65.72375062
aF75.49004551
aF76.48875991
aF80.48660601
aF84.06565626
aF85.97243702
aF88.4763668
aF91.18837285
aF95.88285547
aF96.36136656
aF96.36136656
aF96.36136656
aF97.08921937
aF97.59730255
aF99.06856807
aF100.75155961
aF102.53637005
aF102.53637005
asVBTC-GNO
p259
(lp260
F31.13441647
aF31.11896711
aF31.11896711
aF30.09867309
aF29.89094949
aF29.03449036
aF27.39956558
aF25.80039099
aF23.78324509
aF23.44178751
aF23.52829973
aF23.5297016
aF17.24243111
aF17.18054908
aF16.82170663
aF17.22661258
aF17.2384154
aF17.50952584
aF17.67601823
aF17.67601823
aF17.37807293
aF18.96364148
aF19.22915499
aF19.22915499
aF18.89465854
aF18.5728595
aF18.5728595
aF18.84130394
aF18.79474572
aF18.79474572
aF18.65780357
aF18.65950671
aF18.85441399
aF18.85537699
aF18.61109214
aF18.61109214
aF18.60192701
aF18.5381049
asVUSDT-ETC
p261
(lp262
F990943.62681274
aF938218.80307367
aF923990.17031273
aF774413.65254116
aF774413.65254116
aF642320.11455781
aF618885.37599745
aF595335.50386512
aF570470.27577265
aF517305.59964301
aF494751.00919037
aF474146.97385553
aF437277.61455962
aF424924.41930406
aF416121.38477006
aF399766.97694866
aF380020.75037365
aF357729.81298815
aF354595.52865137
aF346660.09861881
aF346862.46385613
aF324886.52080134
aF308914.642013
aF333925.13783186
aF335177.46072633
aF361675.19814239
aF357565.78888795
aF361630.85693913
aF365434.57487967
aF363008.04683956
aF368543.77419756
aF364666.14243172
aF386271.14721779
aF386552.63134057
aF386148.89332417
aF384243.2480475
aF375636.59894923
aF370456.65837128
asVBTC-GCR
p263
(lp264
F3.36431867
aF3.56107281
aF3.5465329
aF3.55272276
aF3.54198923
aF3.42730289
aF3.44494378
aF3.44494378
aF3.41912381
aF2.72781248
aF2.73525814
aF2.76564448
aF2.76065202
aF2.79070995
aF3.0001432
aF3.1752488
aF3.1752488
aF2.81325606
aF2.87777693
aF2.87628719
aF2.85704009
aF2.85971315
aF2.87223694
aF2.89797573
aF3.09943329
aF3.1021666
aF3.00030384
aF3.00561827
aF3.01002543
aF3.01726913
aF3.01726913
aF3.01726913
aF3.09076385
aF3.02149755
aF2.90259454
aF2.90534884
aF2.90534884
aF2.90534884
asVBTC-XEL
p265
(lp266
F299.19444716
aF298.12722357
aF287.56583898
aF285.02448347
aF279.65382859
aF265.27012147
aF285.67514723
aF296.16061942
aF316.01680341
aF324.45766311
aF330.81441382
aF341.60561757
aF350.51317747
aF356.0353754
aF369.62344598
aF373.50185713
aF381.99183889
aF383.16352779
aF410.06111456
aF433.42887561
aF439.62425602
aF459.11100138
aF472.89694819
aF478.23675207
aF482.76204523
aF486.87509054
aF491.08993196
aF495.91617176
aF501.18744796
aF504.61759481
aF507.61593862
aF507.96020163
aF509.93875895
aF550.19824126
aF556.32476969
aF557.30443763
aF559.01402805
aF566.75058204
asVBTC-XEM
p267
(lp268
F565.76759105
aF557.05244324
aF551.30100105
aF538.80781985
aF508.01395002
aF502.34855555
aF499.78084259
aF500.98129539
aF498.78853854
aF495.10791942
aF492.89899778
aF488.65187229
aF485.19083554
aF460.2016461
aF458.10713854
aF457.7372818
aF455.34330318
aF453.33102941
aF453.08806378
aF452.1040229
aF450.70923054
aF448.42955474
aF448.36869071
aF445.42616625
aF446.26245724
aF445.02169238
aF443.23516987
aF443.47874792
aF442.64118427
aF442.1620027
aF440.81736881
aF439.82088833
aF439.56017986
aF439.32898993
aF434.88880495
aF429.88206667
aF430.75304625
aF428.46576919
asVBTC-NBT
p269
(lp270
F471.86965524
aF467.26198358
aF444.381114
aF429.48603676
aF427.10644516
aF396.28114684
aF364.199638
aF354.09034693
aF342.13554432
aF306.65492526
aF281.41030783
aF269.51586299
aF261.88963141
aF262.0297587
aF238.15979766
aF235.99050795
aF215.04508869
aF211.89023547
aF212.28762867
aF212.26678737
aF211.57744843
aF209.76645902
aF208.77197189
aF209.40284427
aF209.29853754
aF208.87575903
aF208.07927683
aF208.41740589
aF209.08471788
aF214.32231126
aF212.83590914
aF216.69449592
aF219.15651059
aF220.20844958
aF223.15867612
aF221.2370018
aF223.13804392
aF225.14957278
asVETH-FCT
p271
(lp272
F67.61875934
aF62.31633334
aF62.31633334
aF61.71224031
aF60.45168548
aF60.45168548
aF60.77629713
aF60.77629713
aF55.83928767
aF112.28615446
aF108.54319237
aF108.61368862
aF108.61368862
aF109.51273616
aF109.51273616
aF109.54586063
aF109.25381525
aF109.25381525
aF109.25381525
aF109.25381525
aF109.25381525
aF109.25381525
aF109.04075812
aF108.82801063
aF108.82801063
aF108.8250181
aF108.8250181
aF108.86336416
aF108.86336416
aF108.86336416
aF110.42053238
aF110.17452905
aF110.17452905
aF105.96344089
aF105.96344089
aF95.96717465
aF95.26810311
aF94.81347833
asVBTC-INFX
p273
(lp274
F5.30371375
aF5.32046036
aF5.32046036
aF4.62929384
aF4.20633058
aF4.08128226
aF3.97615236
aF3.97615236
aF3.61347818
aF3.61347818
aF3.71884781
aF3.7183826
aF3.7183826
aF3.59450342
aF3.37085487
aF3.3674482
aF3.20839221
aF3.20696965
aF3.16611154
aF3.16661212
aF3.09282961
aF3.09382852
aF3.09382852
aF3.09382852
aF3.08965802
aF3.08965802
aF3.07127833
aF2.9202424
aF2.76002887
aF2.69093603
aF2.59756567
aF2.59756567
aF2.59568062
aF2.5947363
aF2.5947363
aF2.5947363
aF2.59530083
aF2.59638131
asVUSDT-NEO
p275
(lp276
F11804745.08869222
aF11528211.92278389
aF11301614.20339876
aF10967475.85099902
aF10423548.69709462
aF9924584.24981882
aF9387992.16460901
aF9193703.40193156
aF8687504.59711804
aF8432466.32587891
aF8209037.60412302
aF7873715.57243421
aF7679867.48383108
aF7293045.0387182
aF7143912.76983453
aF6765863.32925271
aF6525725.25607509
aF6390233.78578229
aF6298317.2187275
aF6207222.03380198
aF6159881.64695206
aF6152890.10442369
aF6164539.47445324
aF6195863.06669326
aF6263513.79076401
aF6208136.81333697
aF6167979.26974704
aF6248649.45892589
aF6235992.05924186
aF6204532.75229145
aF6134983.16439725
aF6004711.27511091
aF5737099.62443658
aF5719940.05482444
aF5724417.01545578
aF5691206.73690114
aF5595680.92682187
aF5493077.38629663
asVBTC-HMQ
p277
(lp278
F39.38004338
aF38.577191
aF38.26900854
aF37.47186148
aF32.60885502
aF32.37870551
aF28.59873284
aF28.58549717
aF26.63304075
aF25.70527662
aF25.37052433
aF24.7702339
aF24.7702339
aF23.79567651
aF21.27015356
aF20.19877388
aF19.85067935
aF19.85067935
aF19.43236203
aF19.44973864
aF19.40151438
aF19.50827984
aF19.50827984
aF19.79682681
aF19.79682681
aF19.44713979
aF19.53012513
aF17.89996061
aF17.85939169
aF17.37371331
aF17.66289964
aF16.2025355
aF16.73711229
aF17.01863087
aF16.977567
aF20.28722574
aF20.26664975
aF23.55932482
asVBTC-SIB
p279
(lp280
F18.13363841
aF19.30531817
aF19.25356779
aF19.26253108
aF19.26253108
aF17.45816912
aF16.46970508
aF15.84085747
aF15.72349975
aF15.76472186
aF15.72411037
aF15.12306738
aF16.20437459
aF16.2231654
aF14.62443069
aF14.59729574
aF14.12783224
aF14.15142973
aF14.12318943
aF14.11993503
aF13.25694223
aF13.15462756
aF12.88496708
aF12.90409288
aF12.82286903
aF12.71477605
aF12.75592298
aF12.55071656
aF12.85637056
aF13.19523929
aF13.59477148
aF13.48073878
aF13.47223347
aF13.47714474
aF13.16972861
aF12.99833645
aF13.03798791
aF13.33515637
asVBTC-BLOCK
p281
(lp282
F98.83286858
aF74.34542865
aF73.83159999
aF72.1068415
aF71.74082778
aF70.36321256
aF70.07078773
aF68.965752
aF67.19397431
aF66.83013976
aF65.78457447
aF57.77564008
aF50.90494988
aF47.99986876
aF47.38923261
aF48.04279571
aF47.16251949
aF46.90859468
aF46.85897183
aF46.17029424
aF46.23412449
aF46.31200502
aF46.09588845
aF45.15121985
aF43.35597358
aF43.29440055
aF43.68510758
aF43.39195303
aF43.15835011
aF43.16406719
aF42.64789135
aF41.17466814
aF39.06997208
aF39.07225111
aF38.27112422
aF38.28007567
aF37.14529152
aF36.75988773
asVBTC-FLDC
p283
(lp284
F8.6745571
aF8.70449899
aF8.38439433
aF8.38439433
aF8.09908537
aF13.62814002
aF17.1934146
aF18.03330119
aF16.98228698
aF18.20479161
aF19.84811443
aF19.98710952
aF20.20698372
aF20.6751339
aF20.97906483
aF21.02909275
aF21.00802979
aF21.00802979
aF21.06033493
aF21.27426792
aF22.06859554
aF22.13463489
aF22.13463489
aF22.14460989
aF22.17999487
aF22.17999487
aF22.16447829
aF22.16447829
aF22.15986704
aF22.07588599
aF22.07588599
aF21.56997412
aF21.53274287
aF21.53274287
aF21.30126604
aF21.32582977
aF21.32822977
aF21.3183301
asVBTC-LBC
p285
(lp286
F166.40374755
aF164.46419887
aF155.16594682
aF138.67654125
aF130.43195871
aF121.07779593
aF106.97066588
aF103.25767993
aF97.92001326
aF97.46406565
aF95.88387878
aF94.20025495
aF94.17542763
aF93.39205667
aF93.62170176
aF90.917335
aF89.79608612
aF88.00346232
aF85.96904458
aF83.93265755
aF80.59652186
aF81.01737953
aF80.40907778
aF80.48817977
aF80.31825561
aF79.39059949
aF78.70390648
aF77.15744528
aF76.73962217
aF76.35305441
aF74.99821486
aF73.52020137
aF73.03033404
aF71.06883355
aF71.00566039
aF70.526878
aF70.13590603
aF69.93368098
asVETH-MYST
p287
(lp288
F98.37645463
aF96.67198116
aF96.67198116
aF96.67198116
aF96.67198116
aF96.67198116
aF96.56082276
aF94.13481132
aF94.13481132
aF88.42844245
aF88.42844245
aF88.42844245
aF88.42844245
aF89.20372905
aF89.87062514
aF28.20393701
aF28.20393701
aF30.20400036
aF30.15934844
aF30.55834968
aF30.55736496
aF30.55736496
aF30.6008467
aF31.11315835
aF31.1037645
aF31.1037645
aF32.47597668
aF33.09340909
aF33.09340909
aF32.76222553
aF32.12217401
aF32.12217401
aF32.00231164
aF30.73530725
aF30.73530725
aF30.73530725
aF30.73530725
aF30.73530725
asVETH-TKN
p289
(lp290
F284.97483431
aF236.76506804
aF218.37136992
aF206.79401322
aF207.02711194
aF207.02711194
aF202.73296458
aF189.95968303
aF189.27285952
aF190.75511844
aF190.85215062
aF190.54562705
aF190.54562705
aF163.57958756
aF154.73723807
aF154.76883134
aF157.04002999
aF157.04002999
aF157.9038261
aF157.8519443
aF157.8519443
aF155.55844163
aF154.9552259
aF154.97323669
aF154.97323669
aF152.01531883
aF153.59329226
aF153.84688176
aF150.44244508
aF150.44244508
aF114.62419038
aF96.43723379
aF96.03961161
aF96.75253699
aF96.699037
aF99.54496843
aF99.54496843
aF66.51588153
asVBTC-BAT
p291
(lp292
F603.81125221
aF582.98341913
aF556.36404062
aF549.38304508
aF528.76530196
aF503.79309583
aF487.50781114
aF469.55272759
aF451.33645566
aF440.47687704
aF435.82744685
aF427.52185429
aF426.05754489
aF419.99326071
aF409.02861073
aF410.27564941
aF407.867762
aF399.39860971
aF397.70339977
aF394.24104761
aF387.47480115
aF383.55042153
aF385.12119923
aF382.40105864
aF377.67454346
aF376.60341872
aF379.29270349
aF372.70114638
aF375.43249581
aF377.12920367
aF372.78072208
aF369.02779554
aF367.47327329
aF356.87926167
aF351.72948378
aF348.32512883
aF344.04395741
aF341.53491488
asVBTC-BURST
p293
(lp294
F74.29056069
aF72.24425986
aF70.08230658
aF67.8519187
aF67.27421746
aF60.0843343
aF55.50324638
aF53.01532612
aF50.82816097
aF44.78206041
aF42.70382887
aF40.65255949
aF40.98661473
aF41.16324297
aF42.31680748
aF94.75046673
aF99.98975325
aF103.71048986
aF105.44055665
aF114.39194623
aF116.12772248
aF116.98600955
aF118.18387573
aF119.83150539
aF120.78894942
aF121.26637987
aF122.0152586
aF123.62084545
aF124.24854344
aF124.87818885
aF125.00944396
aF128.05661346
aF128.25182302
aF128.7214329
aF125.32236023
aF124.00849821
aF124.20505006
aF124.74955775
asVBTC-2GIVE
p295
(lp296
F44.44084869
aF44.65496624
aF44.83836272
aF45.03213071
aF45.34702689
aF45.42333008
aF45.37641189
aF45.54130904
aF44.41243264
aF44.12222504
aF44.2654862
aF45.72818985
aF45.7849932
aF45.86247937
aF45.92520782
aF46.14753073
aF45.27964405
aF45.40630839
aF45.79048855
aF45.23405364
aF45.46128605
aF44.1239855
aF44.1239855
aF43.21125395
aF42.89145126
aF41.71367568
aF41.26681138
aF41.3039919
aF41.39381053
aF40.83923224
aF40.83923224
aF36.9721364
aF35.04352309
aF34.48152359
aF34.29486591
aF33.83816051
aF33.78629468
aF33.57003755
asVBTC-GRC
p297
(lp298
F9.92986842
aF9.84749183
aF9.81661203
aF9.61588065
aF9.62261871
aF9.3036197
aF9.3036197
aF8.75218975
aF8.67079416
aF8.67079416
aF8.51585664
aF8.509221
aF8.52319161
aF7.84968564
aF7.83588451
aF7.83588451
aF7.82083814
aF7.69545362
aF7.69545362
aF7.68593601
aF7.48386256
aF7.48006049
aF7.46279313
aF7.65736295
aF7.65736295
aF7.72232932
aF7.72758203
aF7.98179052
aF7.74970483
aF7.74970483
aF7.68498752
aF7.46010727
aF7.35666355
aF7.37666353
aF7.40197598
aF7.41151875
aF7.45585925
aF6.76057471
asVBTC-BAY
p299
(lp300
F16.03272091
aF16.09059821
aF16.08098851
aF14.93571895
aF14.54145219
aF14.24610235
aF14.23845786
aF13.34419118
aF13.22184267
aF13.0587533
aF13.0587533
aF12.8722294
aF12.68078294
aF12.67361766
aF12.69468298
aF13.31258026
aF13.57754469
aF13.09968285
aF13.32434709
aF13.16473777
aF10.64162817
aF10.64162817
aF10.95948524
aF10.95722806
aF11.0498769
aF11.22076805
aF11.17043359
aF11.1696102
aF11.18178123
aF11.61393779
aF11.5068968
aF11.29417414
aF11.36133438
aF11.29350324
aF11.29505707
aF11.33337503
aF11.30289449
aF12.20551867
asVBTC-NLG
p301
(lp302
F19.45260749
aF19.43595715
aF19.43595715
aF19.42709292
aF19.34442146
aF18.89570679
aF19.04125679
aF19.90013359
aF19.78144687
aF19.62340096
aF19.35154171
aF19.17909769
aF18.73719593
aF18.50109358
aF18.5835396
aF18.5053913
aF17.98725426
aF18.07386404
aF18.0190522
aF18.01326311
aF17.89463343
aF17.7749466
aF17.78115603
aF17.32272407
aF16.82991538
aF14.21151057
aF14.21151057
aF14.05327018
aF14.13414026
aF15.64635534
aF15.65872595
aF15.73323306
aF15.72157093
aF15.75244746
aF16.05320904
aF16.02136077
aF16.13457559
aF16.15591625
asVBTC-ANT
p303
(lp304
F62.66684082
aF61.62546562
aF61.36505312
aF60.71713266
aF59.84974494
aF58.76038499
aF58.15902239
aF56.83438372
aF57.07735623
aF54.37947083
aF54.59623106
aF52.76227888
aF51.53254349
aF50.75476411
aF50.55366357
aF50.15007971
aF50.47412354
aF50.33322264
aF50.2632602
aF50.40188768
aF51.62524568
aF51.39413067
aF51.1606707
aF51.16145925
aF51.01140897
aF50.49750181
aF50.84008917
aF50.57780399
aF50.77594311
aF51.43477171
aF50.48122207
aF51.18660379
aF54.09488189
aF54.01885153
aF54.18716236
aF54.22270379
aF58.28197752
aF57.89251366
asVBTC-TKN
p305
(lp306
F180.00272739
aF156.94622722
aF152.29907143
aF148.78344997
aF143.80492756
aF134.26286673
aF128.85762085
aF118.7194323
aF116.69893069
aF114.31772593
aF111.8570077
aF109.89698232
aF100.3558892
aF97.50625649
aF95.75999275
aF95.1294705
aF92.50526416
aF92.72492659
aF90.2977947
aF90.59239311
aF90.95345771
aF90.27805666
aF89.39204856
aF91.64667351
aF91.22878418
aF91.2059652
aF90.77493462
aF91.47607088
aF89.82018087
aF88.95177131
aF85.70219196
aF85.235446
aF83.37473254
aF83.25557734
aF82.60592461
aF82.04641449
aF79.98794879
aF78.16007843
asVBTC-DMD
p307
(lp308
F11.84584653
aF11.15434616
aF11.28987358
aF11.30363122
aF11.3876858
aF11.3890158
aF11.18424261
aF11.24923637
aF11.24250347
aF11.16432979
aF12.10843517
aF12.06095997
aF12.00661271
aF12.14529271
aF12.12786455
aF11.98428173
aF11.94772938
aF12.333604
aF12.46064358
aF12.19411684
aF12.19411684
aF19.33577776
aF19.54668553
aF18.83256835
aF18.88066576
aF19.17204824
aF20.50508799
aF20.66481809
aF20.92500399
aF21.14613235
aF21.2415458
aF21.7491418
aF23.53373434
aF23.44327854
aF23.85559312
aF23.56974171
aF23.54544948
aF23.58870455
asVBTC-TKS
p309
(lp310
F31.57479513
aF31.63666665
aF31.65533299
aF32.0862626
aF32.0862626
aF33.28063758
aF34.43241513
aF34.52465707
aF34.70226144
aF33.78655601
aF33.79599564
aF33.82657506
aF33.93006378
aF33.79516517
aF34.13116752
aF34.38693529
aF34.54578618
aF34.57578075
aF34.57664857
aF34.93568136
aF35.05091469
aF35.04153818
aF35.00185479
aF35.30993442
aF35.30993442
aF34.4612809
aF34.47206031
aF34.47206031
aF34.80132399
aF34.80239261
aF34.81110171
aF34.83309438
aF33.84536029
aF34.04267802
aF34.04267802
aF34.48167697
aF34.48167697
aF34.48167697
asVBTC-GRS
p311
(lp312
F46.13235597
aF45.89779375
aF46.71586984
aF46.04847021
aF42.40971214
aF40.50140367
aF40.43116602
aF38.74936945
aF35.88679982
aF35.1930746
aF34.76026699
aF34.25214463
aF35.05329802
aF34.84333107
aF32.8611585
aF33.34435572
aF34.21680769
aF34.13869824
aF33.91121106
aF33.84934215
aF33.83594889
aF33.44632489
aF31.75830626
aF31.03473619
aF31.02139138
aF30.91988942
aF29.9765631
aF29.95792066
aF30.84024324
aF30.52894934
aF30.3698864
aF30.37733927
aF30.1207801
aF29.52542915
aF29.54644067
aF29.52543668
aF29.87249764
aF30.15484244
asVUSDT-BCC
p313
(lp314
F5501115.63842484
aF5107464.11583963
aF5006273.78111099
aF4816446.50414965
aF4649119.26216738
aF4284698.70117909
aF4049465.3699848
aF3902532.35358844
aF3631738.29230487
aF3516100.48880165
aF3497289.05182281
aF3308292.90263622
aF3238319.10317632
aF3032743.98854857
aF2960290.29535002
aF2862499.76062173
aF2663561.40802667
aF2663561.40802667
aF2350036.40959349
aF2300252.87064952
aF2236002.99306233
aF2128632.10787265
aF2098649.94450771
aF2095387.98739682
aF2090579.1483114
aF2067726.24596102
aF2022078.71678365
aF1997475.26817682
aF2002770.93249597
aF1997423.83093844
aF2013429.28302739
aF1913908.20043985
aF1915749.89297789
aF1845790.04137727
aF1706326.8833736
aF1692817.55791099
aF1602977.94638268
aF1589519.37633519
asVBTC-FCT
p315
(lp316
F216.76346792
aF202.72146565
aF202.72146565
aF168.02207832
aF163.56795473
aF159.74368529
aF152.00309096
aF146.7115495
aF144.79575896
aF147.45438034
aF143.25778864
aF141.78717062
aF142.36353734
aF138.60053505
aF135.39079542
aF135.63981045
aF131.29674494
aF131.89774575
aF131.60867568
aF136.33740199
aF134.08828423
aF134.04019109
aF132.36725957
aF130.76269042
aF128.95144133
aF122.38350331
aF121.83162323
aF122.21274202
aF124.68120298
aF124.99522666
aF125.93702863
aF124.10627264
aF123.13731569
aF117.97403146
aF116.57285253
aF119.21008149
aF117.60438694
aF118.4520252
asVBTC-XDN
p317
(lp318
F14.22239692
aF14.19862547
aF14.2015667
aF13.80539717
aF13.77711356
aF12.77609406
aF11.90284826
aF11.94236683
aF11.94236683
aF12.24685161
aF12.53537823
aF12.45433973
aF12.43876373
aF12.4641276
aF12.54585435
aF12.37825698
aF12.42820695
aF12.50913618
aF12.52639688
aF12.4891808
aF12.63700709
aF12.62905397
aF12.62905397
aF12.61831015
aF12.62043015
aF12.55152886
aF12.34832201
aF12.36535479
aF12.44667743
aF12.55552735
aF12.56544825
aF12.57084825
aF12.88887347
aF12.89163398
aF12.74427139
aF12.80834566
aF12.77418566
aF12.77470566
asVETH-LUN
p319
(lp320
F513.60536156
aF511.70567744
aF500.98502176
aF495.37368475
aF495.83602416
aF471.45240827
aF468.12074526
aF452.15509484
aF445.87921928
aF439.01607007
aF439.01607007
aF390.48430426
aF383.54149832
aF374.06700292
aF369.88260936
aF369.88260936
aF367.02689088
aF369.60258034
aF369.61250543
aF363.02301532
aF363.02301532
aF355.43524946
aF350.66312856
aF317.13519441
aF312.83265492
aF312.83265492
aF306.2621941
aF306.12107175
aF306.12107175
aF314.64712996
aF317.77785093
aF295.59673816
aF295.59673816
aF294.62437141
aF292.09426277
aF287.04040098
aF286.32990544
aF299.65526689
asVBTC-QTUM
p321
(lp322
F7680.75565542
aF7402.85112993
aF7228.9283894
aF7050.28752417
aF6823.68703912
aF6521.24552156
aF6352.21365116
aF6055.78876423
aF5851.83032418
aF5773.06922967
aF5587.93324722
aF5397.41457806
aF5286.42528859
aF5227.57864226
aF5167.80543773
aF5042.85784112
aF4964.02167089
aF4847.98324143
aF4832.24552696
aF4770.16712563
aF4623.00724568
aF4596.96566126
aF4537.01646293
aF4477.26745345
aF4462.16609504
aF4401.4284049
aF4372.70978666
aF4333.36773906
aF4310.40573652
aF4247.45509407
aF4106.87581286
aF4039.73031542
aF4004.32912838
aF3997.64837655
aF3973.35934772
aF3938.26390198
aF3891.1970184
aF3735.02847779
asVBTC-DOGE
p323
(lp324
F150.67401175
aF146.21088798
aF143.80739662
aF133.46708428
aF123.22990543
aF123.03191108
aF121.84395765
aF114.42303597
aF113.92696633
aF111.84594373
aF113.45830791
aF109.0710119
aF107.39556109
aF104.99300551
aF103.70853115
aF103.93912018
aF98.24540803
aF97.76994153
aF96.78191493
aF95.91163622
aF94.78850817
aF92.2968839
aF92.41461617
aF92.33715722
aF92.66267873
aF89.58711404
aF89.38009426
aF89.46301879
aF87.18802837
aF86.69708377
aF86.77756378
aF89.6381074
aF89.20511117
aF88.9282246
aF89.06897581
aF88.97379951
aF88.19119859
aF86.58358983
asVBTC-LTC
p325
(lp326
F3178.26900124
aF3119.08570026
aF3056.06083421
aF3001.8345891
aF2916.73041614
aF2852.08537245
aF2771.24238166
aF2682.87879838
aF2600.75124658
aF2574.56665687
aF2541.70180521
aF2502.77397793
aF2453.20228634
aF2405.51267824
aF2363.60055167
aF2313.48304341
aF2296.92919156
aF2259.71540412
aF2233.25312504
aF2224.98328178
aF2192.35166122
aF2165.75886628
aF2147.31193756
aF2130.11618419
aF2117.90254783
aF2092.24652301
aF2074.56753307
aF2077.26839085
aF2075.5155359
aF2110.89929671
aF2095.03532542
aF2076.66970886
aF2052.35437516
aF2044.75042364
aF2012.03783114
aF2006.51116395
aF1997.06156674
aF1992.17297716
asVBTC-LMC
p327
(lp328
F383.61668742
aF385.4322651
aF385.71055235
aF386.30987106
aF385.86348331
aF385.83156137
aF386.45956503
aF388.27219107
aF388.06501304
aF389.44224264
aF388.5882439
aF390.44467277
aF391.40256097
aF392.46474503
aF394.19274355
aF383.48273641
aF377.30137519
aF370.35515931
aF363.5759181
aF361.9064656
aF357.77248056
aF364.75633934
aF365.11164945
aF363.57858699
aF363.35386085
aF361.01807787
aF360.08450773
aF363.65126366
aF373.75946765
aF379.8061919
aF384.43102308
aF393.98365772
aF402.36665695
aF404.7081502
aF406.49843143
aF411.51735248
aF413.91928131
aF412.60159836
asVBTC-BLITZ
p329
(lp330
F13.43682268
aF13.42019643
aF13.42518392
aF12.71266655
aF12.68824127
aF12.29653803
aF11.85467217
aF11.57223616
aF11.22339451
aF11.11547252
aF10.20473025
aF10.11329549
aF10.11329549
aF10.04175578
aF9.74840704
aF9.65700586
aF9.65933176
aF9.63723813
aF9.60305234
aF9.60305234
aF9.53012563
aF9.34404308
aF9.37270971
aF9.40749286
aF9.47715116
aF9.65924651
aF9.66087658
aF9.66087658
aF9.63788831
aF9.61035057
aF9.61035057
aF9.61035057
aF9.61272876
aF9.63088941
aF9.67437145
aF9.6442104
aF9.65289099
aF9.4964037
asVBTC-GBYTE
p331
(lp332
F158.16854349
aF157.56257515
aF155.59521991
aF154.77012414
aF147.54019391
aF141.49721363
aF138.94293346
aF139.18197775
aF139.18197775
aF138.55493496
aF132.62094362
aF126.46117848
aF125.71955582
aF123.87559316
aF123.28818573
aF122.93906921
aF123.50766626
aF124.32462798
aF124.3853807
aF120.92195751
aF120.71896283
aF120.41703164
aF119.36309
aF118.56809631
aF115.64586461
aF115.64586461
aF115.13389526
aF114.83009358
aF114.87765382
aF114.21890382
aF112.95668484
aF112.91977424
aF113.71912066
aF113.82720211
aF124.0992932
aF124.17052769
aF124.10054909
aF124.09549653
asVETH-XRP
p333
(lp334
F1040.88190879
aF985.38671694
aF985.38671694
aF963.82514942
aF942.33759885
aF894.44183448
aF863.34202546
aF741.8227204
aF684.56966059
aF677.53411653
aF644.95145518
aF607.03397274
aF603.60362236
aF600.87768261
aF598.89162664
aF598.89162664
aF597.76447602
aF535.79677865
aF535.31904992
aF545.53012317
aF545.33865396
aF545.33865396
aF526.12178488
aF526.58931555
aF527.322707
aF528.37633416
aF529.32761926
aF525.92993731
aF525.92993731
aF531.79862801
aF563.51388872
aF569.13187718
aF572.24690043
aF573.57321441
aF575.02631536
aF575.32676414
aF575.45793423
aF558.36305511
asVETH-ANT
p335
(lp336
F112.82821603
aF112.66378762
aF112.66378762
aF112.66378762
aF115.96442667
aF117.8007216
aF117.8007216
aF117.8007216
aF113.50582046
aF107.35603146
aF107.35603146
aF105.26992478
aF105.26992478
aF92.99204535
aF92.99204535
aF92.99204535
aF92.99204535
aF88.72202498
aF88.72202498
aF88.72202498
aF88.56536882
aF88.71079569
aF87.39524764
aF88.40786864
aF88.40786864
aF89.10656762
aF88.94282738
aF88.94282738
aF88.75305329
aF88.73910488
aF85.02897513
aF85.09746303
aF88.13888007
aF88.13888007
aF88.29319067
aF88.29319067
aF99.6663621
aF101.80060272
asVETH-CRB
p337
(lp338
F16.82057836
aF16.82057836
aF16.82057836
aF16.84986432
aF16.84986432
aF16.84986432
aF14.43248162
aF14.43248162
aF11.52864643
aF8.77963389
aF8.77963389
aF8.77963389
aF8.06054845
aF8.06054845
aF8.06054845
aF8.06054845
aF8.06054845
aF9.38498384
aF9.38498384
aF9.38498384
aF9.38498384
aF9.38498384
aF9.38498384
aF9.38498384
aF9.38498384
aF9.15854745
aF9.15854745
aF9.15854745
aF9.15854745
aF9.00993559
aF9.00993559
aF7.50039528
aF7.50039528
aF7.50039528
aF7.50039528
aF7.50039528
aF7.50039528
aF7.50039528
asVBTC-STORJ
p339
(lp340
F296.20328985
aF283.73547596
aF255.55374308
aF251.20147429
aF244.33719618
aF240.28614346
aF234.30376693
aF232.02720382
aF215.88584216
aF214.52947776
aF204.08571937
aF197.91266185
aF193.21455566
aF191.42466606
aF191.02466628
aF189.89292532
aF188.48323581
aF186.55744655
aF186.48206437
aF184.78222802
aF184.97386006
aF176.31053545
aF168.26342254
aF159.56103863
aF152.7415775
aF148.89163112
aF143.46606868
aF143.37996549
aF143.69980719
aF143.3877806
aF143.04670765
aF142.6326918
aF137.96633558
aF137.66741234
aF129.44051608
aF129.21831214
aF130.07911674
aF130.47608139
asVUSDT-XRP
p341
(lp342
F2857798.92982667
aF2802847.1107198
aF2738986.30649988
aF2565440.97533968
aF2440071.98791077
aF2387637.16351837
aF2139760.01010911
aF2052788.32624614
aF1945871.76584424
aF1917894.0326907
aF1819271.28685796
aF1698974.20648825
aF1620413.23509241
aF1587411.57305011
aF1582520.41259255
aF1549660.19043546
aF1530956.83522061
aF1523305.44474081
aF1516375.68673894
aF1466879.83097173
aF1465947.41761731
aF1464919.74891861
aF1452913.70022418
aF1432870.2597409
aF1416413.4721966
aF1357319.43210666
aF1340566.08904014
aF1318289.75572348
aF1279030.27168785
aF1266055.03293288
aF1251964.86505802
aF1253666.32704029
aF1084009.24031194
aF1082963.95311655
aF1076520.06196821
aF1076647.85371466
aF1046359.50799801
aF1035959.3136937
asVBTC-MEME
p343
(lp344
F4.32052984
aF4.31806972
aF4.31120134
aF4.31418606
aF4.27896877
aF4.27896877
aF3.8919893
aF3.76062947
aF3.76062947
aF3.43221282
aF3.53760355
aF3.53705356
aF3.53705356
aF3.53705356
aF3.53610153
aF3.53610153
aF3.53610153
aF3.53610153
aF3.53610153
aF3.6066274
aF3.6066274
aF3.55662741
aF3.55662741
aF3.55662741
aF3.5470012
aF3.5470012
aF3.55599912
aF3.59548771
aF3.59845962
aF3.59997421
aF3.59997421
aF3.59997421
aF3.60199392
aF3.59777246
aF3.59777246
aF3.59711246
aF3.59711246
aF3.60858573
asVBTC-CFI
p345
(lp346
F45.09662673
aF43.51220376
aF41.35314442
aF40.86510276
aF39.92378876
aF40.52876564
aF40.16111703
aF39.59404854
aF39.56249243
aF40.10813919
aF40.05872072
aF41.45492508
aF41.97589972
aF42.45245026
aF42.500283
aF42.38286726
aF42.53250607
aF41.37807965
aF41.28630055
aF41.17513266
aF40.96104226
aF40.68227724
aF41.15628557
aF40.58180592
aF40.20384921
aF40.20435304
aF40.14009263
aF37.37719259
aF34.54195646
aF34.20828872
aF34.01467338
aF34.20080745
aF34.57075295
aF35.01509879
aF35.07799348
aF35.83835436
aF33.37551084
aF33.40284967
asVBTC-XMR
p347
(lp348
F756.98271728
aF729.32406538
aF698.02143902
aF676.1560625
aF659.14259788
aF639.33544821
aF615.48524691
aF600.81376133
aF586.47355232
aF579.06011971
aF558.74147744
aF555.93914396
aF553.45165422
aF540.36420552
aF539.16178675
aF530.77642933
aF519.414634
aF517.16661292
aF510.43236234
aF507.5912934
aF497.80362056
aF491.71705845
aF493.10698775
aF481.56925633
aF477.92160887
aF473.69731356
aF455.16688768
aF452.95120714
aF451.97544016
aF450.89922953
aF442.41043976
aF427.07503617
aF408.80823683
aF402.29862785
aF398.40352587
aF400.48785974
aF392.92600307
aF390.08557068
asVBTC-DGD
p349
(lp350
F29.30074459
aF29.2641545
aF29.16876756
aF29.16084172
aF28.70275537
aF27.91090032
aF27.91090032
aF21.05618068
aF21.05618068
aF20.88890919
aF20.96412407
aF20.96412407
aF20.9778101
aF20.88296537
aF20.88296537
aF20.82954735
aF20.82954735
aF20.99347912
aF21.03756492
aF20.69131394
aF20.69131394
aF20.57111095
aF20.52959792
aF20.52959792
aF20.5519212
aF27.39748123
aF27.67913238
aF27.78090109
aF27.87945712
aF27.8342656
aF27.79669512
aF36.11128517
aF36.82523448
aF37.8944889
aF37.96103259
aF40.00589664
aF41.86381126
aF42.20149331
asVBTC-NEOS
p351
(lp352
F12.74412379
aF12.54528438
aF12.55446937
aF11.76283513
aF11.25370634
aF11.25370634
aF11.20174819
aF10.78302644
aF10.75537064
aF10.08668658
aF10.08768245
aF10.05923447
aF10.05823708
aF10.37320311
aF10.00641175
aF9.92323612
aF10.15820231
aF10.54695485
aF10.53432389
aF9.8734633
aF9.98259671
aF9.83035389
aF9.8020606
aF9.61067491
aF9.57192876
aF9.57192876
aF9.5794167
aF9.62537581
aF9.36719962
aF9.36382685
aF9.19397678
aF8.53411908
aF8.53488783
aF8.56435901
aF8.56435901
aF8.56375893
aF8.30112586
aF7.41034977
asVBTC-QRL
p353
(lp354
F33.66409544
aF33.67406215
aF33.67406215
aF33.28318223
aF33.2218294
aF31.27419153
aF29.90089069
aF30.23637988
aF30.16391533
aF31.77583561
aF32.80737515
aF32.80737515
aF32.27458117
aF32.10432824
aF31.66218474
aF30.63311845
aF29.62310765
aF29.77376119
aF29.06800217
aF29.29463363
aF29.67787494
aF29.69046374
aF29.64973926
aF29.47025665
aF30.3218785
aF29.36706206
aF32.91124995
aF33.0124145
aF33.13291331
aF33.82491587
aF34.59782862
aF34.67042926
aF34.6692534
aF34.4414164
aF34.44167032
aF34.65265233
aF34.44943969
aF34.46627601
asVBTC-XAUR
p355
(lp356
F28.88484492
aF29.35669798
aF29.35145203
aF29.37841595
aF29.14350253
aF28.88016013
aF28.69345363
aF28.64893738
aF28.65083907
aF28.52987318
aF29.20022285
aF29.24639928
aF20.91037355
aF20.91910818
aF20.92626039
aF20.62816527
aF21.53457887
aF22.49303806
aF22.66434308
aF22.68980541
aF22.79772184
aF22.7985455
aF22.72574721
aF22.72932653
aF22.821351
aF22.821351
aF22.821351
aF22.73840399
aF22.73840399
aF22.73893341
aF22.77975766
aF22.78378766
aF22.82589329
aF22.8625594
aF15.06703374
aF15.02651292
aF14.90721678
aF14.5346813
asVUSDT-XMR
p357
(lp358
F1115232.68474176
aF1091381.0782011
aF1091381.0782011
aF1026440.63074686
aF972549.03141575
aF957982.49509931
aF827144.26537923
aF789833.57431456
aF764419.11210842
aF746622.58800108
aF723038.56680054
aF720247.36644784
aF708202.65586851
aF661449.02132241
aF658822.73475191
aF651187.28298962
aF651187.28298962
aF623903.43759881
aF595182.17368494
aF592060.01278221
aF580920.53301217
aF580920.53301217
aF552157.87547734
aF553139.7574628
aF549864.39588009
aF549864.80054669
aF539836.24139348
aF540109.60611361
aF535808.20815057
aF535337.60527562
aF535337.60527562
aF529748.7219831
aF508811.61385615
aF508795.24692871
aF516622.1736717
aF516731.77281313
aF488263.48192174
aF486890.42967118
asVBTC-BYC
p359
(lp360
F1.60939342
aF1.60939342
aF1.59355508
aF1.38810463
aF1.38810463
aF1.3547639
aF1.29031845
aF1.34778086
aF1.3483309
aF1.28203913
aF1.28226382
aF1.28226382
aF1.27643774
aF1.27643774
aF1.26323735
aF1.23170325
aF1.23254288
aF1.23254288
aF1.21604271
aF1.25940139
aF1.24863661
aF1.24863661
aF1.24863661
aF1.24863661
aF1.22868661
aF1.22868661
aF1.22868661
aF1.22868661
aF1.23143739
aF1.23653638
aF1.24656545
aF1.24656545
aF1.2446066
aF1.2473015
aF1.1722027
aF1.1722027
aF1.17274666
aF1.17429809
asVETH-NMR
p361
(lp362
F146.1756183
aF170.14963261
aF170.14963261
aF170.14963261
aF170.14963261
aF172.14463259
aF173.58999072
aF173.57567272
aF173.57567272
aF183.66881087
aF186.20104011
aF186.29119404
aF187.20308555
aF182.69341161
aF182.69341161
aF183.43799899
aF183.43799899
aF177.61340904
aF177.61340904
aF182.56705718
aF184.11666168
aF185.34726862
aF187.60518786
aF212.8711731
aF217.13586123
aF243.05473927
aF257.59235737
aF259.57074505
aF265.44933343
aF274.09305206
aF293.16704723
aF293.8640162
aF297.2874942
aF297.2874942
aF297.38239022
aF297.38239022
aF300.28333982
aF300.28333982
asVBTC-STEEM
p363
(lp364
F240.14905808
aF236.63456099
aF216.08549243
aF208.42306146
aF205.62387436
aF201.99418082
aF196.8425329
aF190.49744773
aF185.86627724
aF187.41211852
aF185.45786841
aF183.32715797
aF182.46972078
aF178.49763654
aF164.34331152
aF163.89686351
aF164.49196919
aF164.4597847
aF163.92633261
aF164.52970323
aF160.1437516
aF152.14103022
aF152.16422494
aF151.76958211
aF151.56515757
aF151.79334948
aF150.39131501
aF148.26085982
aF146.85710506
aF142.43105983
aF141.97222228
aF141.86654132
aF142.37902915
aF141.70437507
aF141.30641012
aF141.50679384
aF141.26043484
aF139.7200039
asVUSDT-ZEC
p365
(lp366
F812958.97626614
aF780090.41849145
aF743498.6454792
aF687142.50565145
aF661388.08794364
aF593572.58801218
aF539606.53607203
aF522128.93993156
aF495023.56684341
aF494631.18766609
aF494631.18766609
aF401653.2807725
aF392016.83337055
aF390204.86640816
aF369122.43160187
aF364689.11773654
aF364689.11773654
aF342910.48447731
aF336694.67077194
aF327180.98754488
aF315665.68151966
aF315111.50650664
aF298872.68760229
aF306583.38448749
aF306709.15590035
aF306447.74473927
aF296282.23193827
aF291884.70388743
aF289915.28291647
aF289684.96690905
aF284866.84248652
aF275274.48590268
aF263006.74402032
aF258568.48685862
aF258607.06874459
aF258482.90054309
aF233991.66271724
aF236199.60055332
asVBTC-IOC
p367
(lp368
F19.17652366
aF19.1770225
aF19.16386705
aF16.32326949
aF17.4125968
aF17.29117126
aF17.23352163
aF15.58569888
aF15.45563468
aF15.36592789
aF15.36592789
aF15.3419358
aF15.44865272
aF14.32161249
aF14.32161249
aF14.29552414
aF14.03910191
aF13.48938935
aF13.47843111
aF13.47843111
aF13.41637388
aF13.44629734
aF13.44629734
aF13.36021407
aF13.33715919
aF13.33715919
aF13.31642823
aF13.24927125
aF13.24031634
aF13.52393402
aF13.56524377
aF13.37801165
aF13.47858827
aF13.43389053
aF12.21360473
aF12.21360473
aF12.33307168
aF12.36661819
asVBTC-RBY
p369
(lp370
F10.79309612
aF10.79309612
aF10.77917864
aF10.76247325
aF10.76247325
aF10.76247325
aF10.74084753
aF10.74084753
aF10.73979258
aF10.73979258
aF10.74077762
aF10.74077762
aF10.74077762
aF10.74077762
aF10.74077762
aF10.74077762
aF12.09452006
aF12.15251206
aF13.64793873
aF13.637396
aF13.637396
aF13.72845657
aF13.72845657
aF13.72845657
aF13.72845657
aF13.72422827
aF13.75863007
aF13.75863007
aF13.76013006
aF13.76013006
aF13.76013006
aF13.76091659
aF13.76200131
aF13.76200131
aF10.29760014
aF10.29760014
aF10.27378232
aF10.27771329
asVBTC-XMG
p371
(lp372
F5.98040716
aF5.30940914
aF5.30940914
aF4.88932346
aF4.16122866
aF4.16122866
aF3.92711477
aF3.89773156
aF3.94728593
aF3.88911695
aF3.77521683
aF3.77521683
aF3.66880817
aF3.66434342
aF3.62657029
aF3.34974038
aF2.96366746
aF2.49067918
aF2.36734031
aF2.36734031
aF2.22434428
aF2.24185284
aF2.24185284
aF2.17685573
aF2.11212529
aF2.09315677
aF2.11473518
aF2.10456436
aF2.10456436
aF2.10456436
aF2.11068488
aF1.9646081
aF1.89021312
aF1.89021312
aF1.80386407
aF1.80471416
aF1.81598084
aF1.78769569
asVBTC-MUSIC
p373
(lp374
F37.58274908
aF37.62450537
aF37.36586278
aF37.13625877
aF37.16630189
aF36.63248497
aF35.95580758
aF33.37511806
aF31.81563207
aF34.87798669
aF39.72156532
aF41.47913744
aF44.28703858
aF45.4130503
aF47.44098447
aF48.47216568
aF49.77761869
aF49.8247048
aF49.58201635
aF57.4261877
aF68.90983852
aF81.51445139
aF83.49176476
aF87.54759342
aF90.04333863
aF106.33595752
aF122.78866838
aF127.38819712
aF131.31245942
aF136.68360848
aF145.19303602
aF153.34708216
aF161.11378116
aF165.8742716
aF168.47429922
aF171.18459712
aF173.61689972
aF177.0718546
asVBTC-UBQ
p375
(lp376
F197.62973769
aF194.74370346
aF188.12148002
aF181.34918881
aF176.47951739
aF162.26385045
aF157.25013353
aF147.55520563
aF144.71751311
aF143.62701683
aF141.16230982
aF139.83560091
aF138.93687678
aF139.05415172
aF139.39638117
aF139.21081475
aF134.52468423
aF133.69940875
aF133.47221007
aF135.55956227
aF133.85160674
aF133.56464349
aF133.87002676
aF133.54194098
aF133.45290748
aF131.24565772
aF132.90249653
aF132.16694976
aF129.47793833
aF129.79399879
aF132.34527291
aF132.02853047
aF132.64513159
aF132.65283825
aF134.14659925
aF134.03661716
aF135.64684805
aF133.66060857
asVETH-BTS
p377
(lp378
F225.43588797
aF215.68017434
aF215.91928854
aF215.14609956
aF204.68202946
aF204.39725826
aF196.62784287
aF196.88417546
aF196.88417546
aF196.23138278
aF191.8177948
aF192.68036325
aF194.72816101
aF188.98097972
aF194.71838064
aF193.73849153
aF193.73849153
aF189.63487825
aF186.47047566
aF186.47047566
aF186.97284938
aF186.78642718
aF186.8822528
aF186.52617676
aF199.3018878
aF198.95276281
aF198.95276281
aF144.3510257
aF144.36922921
aF143.85455557
aF143.85455557
aF143.85455557
aF141.28147965
aF140.64327116
aF140.52479326
aF140.52479326
aF151.8971277
aF151.8971277
asVETH-QRL
p379
(lp380
F14.82534297
aF14.77030758
aF14.77030758
aF14.77030758
aF14.77030758
aF14.77030758
aF14.77030758
aF14.35825341
aF16.27833823
aF14.72643394
aF14.72643394
aF14.72643394
aF14.46757485
aF14.46757485
aF13.93306357
aF13.93306357
aF10.79809707
aF10.6961475
aF10.6961475
aF14.73967715
aF16.33370806
aF16.45556329
aF16.47677412
aF16.47677412
aF16.2930175
aF16.2930175
aF16.2930175
aF16.2930175
aF16.2930175
aF15.81437614
aF15.81437614
aF15.81437614
aF15.81437614
aF15.81437614
aF15.81437614
aF15.92453993
aF16.16767239
aF16.16767239
asVBTC-SNRG
p381
(lp382
F4.73140544
aF4.60459032
aF4.59190516
aF4.57934385
aF4.47470321
aF5.02159506
aF4.44238127
aF4.28022912
aF4.28022912
aF4.26552188
aF4.34055193
aF4.34055193
aF4.37699581
aF4.13520927
aF4.13520927
aF3.97076887
aF3.82474037
aF3.82474037
aF3.82529036
aF3.71503142
aF3.64964992
aF3.4058803
aF3.48650993
aF3.63670944
aF3.663242
aF3.65605892
aF3.51646957
aF3.49532368
aF3.55274157
aF3.55274157
aF3.49457539
aF3.49457539
aF3.51602718
aF3.52268623
aF3.53207031
aF3.53207031
aF3.53207031
aF3.53207031
asVBTC-INCNT
p383
(lp384
F5.59850088
aF5.03353156
aF5.08350351
aF5.08350351
aF5.13092263
aF5.06212395
aF5.06212395
aF5.04669501
aF5.01136801
aF5.01136801
aF4.9394015
aF5.01222512
aF4.99764093
aF4.95555168
aF4.95555168
aF4.77861096
aF4.77861096
aF4.74843625
aF4.16906315
aF4.12690497
aF4.12690497
aF4.18374952
aF4.18374952
aF4.12309168
aF4.16794724
aF4.16794724
aF4.16794724
aF4.16794724
aF4.02961574
aF4.02961574
aF4.0240219
aF4.03143052
aF4.04235504
aF4.36812605
aF4.67866284
aF5.33391392
aF5.37412397
aF5.37815796
asVBTC-GLD
p385
(lp386
F337.07615741
aF336.08031058
aF335.80806949
aF335.76054822
aF335.19971254
aF331.6717686
aF337.43566791
aF337.79572162
aF338.16966173
aF336.30465426
aF335.96504893
aF337.55692161
aF338.98597239
aF339.90197407
aF339.60473062
aF339.52827538
aF339.79965001
aF340.73338445
aF341.80089097
aF342.59113216
aF342.72303814
aF342.16858019
aF344.09930101
aF344.86174284
aF344.83616598
aF345.47516431
aF345.88083052
aF345.96520988
aF341.73768139
aF340.26026166
aF338.76409844
aF337.10238734
aF335.18703349
aF334.35500489
aF334.73646485
aF333.95351865
aF333.28242615
aF332.07584123
asVBTC-ION
p387
(lp388
F389.78400756
aF394.72653598
aF401.82195761
aF402.75592706
aF404.6354723
aF407.37257999
aF408.61731678
aF412.32254987
aF415.31452643
aF419.7316653
aF425.44300511
aF430.38011167
aF434.22034545
aF436.91851801
aF439.14517768
aF440.46817935
aF443.19285723
aF445.3077307
aF462.4147701
aF465.02752572
aF477.35230571
aF479.49162032
aF484.9464551
aF490.04913848
aF493.12037908
aF502.71091071
aF504.81445666
aF507.17064973
aF518.45754018
aF525.16162894
aF548.45355962
aF558.49832628
aF567.34674115
aF572.57791891
aF593.23206667
aF620.66165892
aF635.80989193
aF645.5538284
asVBTC-KORE
p389
(lp390
F23.16410868
aF23.27027982
aF23.27027982
aF23.44330741
aF23.44872152
aF24.01086059
aF23.35056821
aF23.44233102
aF23.48847317
aF23.64057118
aF23.34489039
aF22.90441262
aF22.70969793
aF22.46847776
aF21.78990017
aF21.94303575
aF23.8233155
aF25.4764511
aF26.15022754
aF26.0607493
aF26.34478748
aF26.5075603
aF26.63143948
aF27.53250552
aF27.86037931
aF27.86125219
aF26.81925711
aF26.62152585
aF26.78489922
aF26.68251073
aF26.22804075
aF26.35744565
aF25.80145713
aF25.7855466
aF26.02356223
aF25.7736012
aF24.89185832
aF24.46068649
asVBTC-PTOY
p391
(lp392
F115.71257814
aF112.1535457
aF112.16029965
aF110.12682974
aF106.80849909
aF89.03411251
aF84.60273182
aF82.6359092
aF79.44853662
aF78.41857285
aF77.112581
aF77.01857538
aF75.78041565
aF76.11614189
aF75.90777638
aF73.11758477
aF73.09838687
aF72.55976429
aF72.49638448
aF72.73521618
aF73.869129
aF75.18792615
aF74.06802314
aF75.48209254
aF75.08290576
aF74.97947866
aF75.12424319
aF75.10013358
aF74.64737618
aF76.90925889
aF77.11446583
aF77.53826962
aF77.78836785
aF76.17327061
aF75.5883393
aF74.54524662
aF74.47058692
aF74.67083503
asVBTC-SPR
p393
(lp394
F13.35666019
aF13.35666019
aF13.3422492
aF13.34680447
aF13.14708025
aF13.14708025
aF12.29837577
aF12.13175583
aF12.78182646
aF12.54404554
aF12.54402121
aF12.5159295
aF12.5159295
aF12.36118083
aF12.33989043
aF12.2406113
aF12.03209245
aF12.01651035
aF12.0165123
aF12.06461697
aF10.85203966
aF10.11485229
aF9.27610097
aF9.27610097
aF9.0612043
aF8.62318763
aF8.49635397
aF8.27363676
aF8.09320359
aF8.09676182
aF8.02132168
aF7.36059467
aF7.36059467
aF7.35696772
aF7.40796771
aF7.40796771
aF7.50482051
aF7.50482051
asVBTC-CURE
p395
(lp396
F4.15882714
aF4.15764673
aF4.08266552
aF4.09071947
aF4.03259435
aF4.02789097
aF4.02460608
aF3.95378498
aF3.96286181
aF3.96286181
aF3.88932483
aF3.88932483
aF3.89177843
aF3.89124554
aF3.77833207
aF3.71209003
aF3.49631807
aF3.49631807
aF3.48252404
aF3.34051053
aF3.3347973
aF3.3347973
aF3.3347973
aF3.42823664
aF3.35010256
aF3.45753132
aF3.45753132
aF3.66040289
aF3.66261996
aF3.67002717
aF3.68030296
aF3.67614726
aF3.68164726
aF3.68164726
aF3.70106338
aF3.70106338
aF3.71397764
aF3.69592097
asVBTC-DCR
p397
(lp398
F134.62818848
aF132.40461603
aF155.3051458
aF158.0897376
aF167.82435241
aF166.81232867
aF163.1143661
aF160.470562
aF159.00866224
aF156.1358361
aF158.74549543
aF154.94922257
aF154.78918739
aF154.23088177
aF155.90797718
aF156.27395111
aF156.16994831
aF155.90958798
aF154.62477679
aF145.11032702
aF146.07396099
aF145.66934982
aF141.36378475
aF140.74958557
aF139.10755739
aF139.47781489
aF138.73251264
aF138.63656411
aF138.71264935
aF137.23226402
aF136.547895
aF136.73663693
aF135.98861307
aF136.21953363
aF134.61138486
aF134.74242529
aF134.15977593
aF134.9058608
asVBTC-DCT
p399
(lp400
F346.82744169
aF344.50230034
aF340.90866585
aF338.3212824
aF335.35921614
aF332.16675635
aF328.68044139
aF322.80774181
aF317.39162159
aF317.63450174
aF317.46752169
aF318.69139001
aF317.92200972
aF318.69638493
aF318.84548642
aF318.16909388
aF318.57881973
aF317.73221363
aF317.27048592
aF318.68689105
aF320.27989684
aF320.54744353
aF321.32529043
aF323.33601816
aF322.1752557
aF322.92229153
aF322.52552059
aF321.71701372
aF321.14077556
aF322.06449002
aF321.38744373
aF321.72906938
aF318.34527578
aF318.13429763
aF318.28732078
aF317.22958135
aF316.77211931
aF319.87415799
asVBTC-KMD
p401
(lp402
F8395.28865508
aF8236.32424549
aF8073.1957095
aF7849.73942221
aF7773.87911298
aF7664.21512359
aF7592.21975876
aF7457.91706204
aF7321.12928263
aF7262.01605471
aF7157.57662655
aF7087.28395858
aF6954.04910638
aF6894.79314682
aF6701.96775101
aF5966.30226173
aF5604.3504572
aF5351.51678918
aF4792.86232803
aF4215.88242495
aF3500.30837711
aF3283.8038624
aF3021.84906428
aF2950.60335893
aF2785.59217117
aF2713.56617551
aF2658.11065925
aF2618.38710097
aF2594.60750256
aF2541.10821704
aF2490.32983086
aF2442.57678979
aF2415.74471163
aF2376.84533486
aF2357.44982883
aF2327.37920198
aF2295.54283122
aF2279.36276373
asVBTC-BSD
p403
(lp404
F6.82046591
aF6.85908437
aF6.86270013
aF6.84107467
aF6.77834072
aF6.79324867
aF6.83541896
aF7.34489187
aF7.37890903
aF7.38710528
aF7.39150728
aF7.49865857
aF7.49967275
aF7.44185459
aF7.44982696
aF6.61702739
aF6.5800528
aF6.63789656
aF6.63789656
aF6.63395321
aF6.60066115
aF6.60066115
aF7.49161962
aF7.41149234
aF7.3907838
aF7.26115359
aF7.384981
aF7.35554121
aF7.28152322
aF7.22039825
aF7.22103556
aF7.22103556
aF7.22103556
aF7.21901642
aF7.23813166
aF7.2415009
aF7.2415009
aF7.2415009
asVUSDT-DASH
p405
(lp406
F933361.19166799
aF899929.54944616
aF899929.54944616
aF784465.818305
aF718981.67499225
aF701493.96352943
aF627730.32560563
aF573515.36310029
aF573515.36310029
aF531036.9108609
aF485658.32907973
aF480594.3673283
aF439507.00517384
aF400033.7602806
aF400033.7602806
aF393154.19593464
aF392144.71285785
aF379346.59935758
aF375232.99574184
aF348912.45005836
aF347833.09571385
aF347833.09571385
aF329930.44428478
aF333904.59035
aF333942.53678117
aF333608.09555782
aF298101.06839961
aF298507.25157415
aF299452.25157496
aF299004.85718648
aF299500.26332993
aF299500.26332993
aF277206.7674425
aF277143.96350111
aF277143.96350111
aF274354.50009101
aF274191.06386506
aF274460.02975585
asVBTC-FAIR
p407
(lp408
F61.23099428
aF61.2397254
aF61.26398075
aF61.26398075
aF61.26398075
aF61.35717239
aF61.35717239
aF61.35556396
aF61.4238412
aF61.46042923
aF64.2210165
aF64.36204401
aF64.50334663
aF64.51456823
aF63.76319848
aF71.4372567
aF71.67275445
aF71.78315577
aF71.79871302
aF70.74991217
aF71.32752419
aF73.1193467
aF73.14433679
aF73.06185636
aF73.03637576
aF72.70097509
aF72.59493454
aF72.69224076
aF72.68983355
aF72.62106177
aF70.46329176
aF70.3651094
aF70.3651094
aF70.3651094
aF70.36265941
aF70.49775919
aF70.50425916
aF70.19889632
asVETH-DASH
p409
(lp410
F315.60970902
aF315.60970902
aF311.97496398
aF276.58753107
aF276.58753107
aF276.58753107
aF208.65686164
aF208.65686164
aF196.39323865
aF195.4331211
aF196.81034628
aF198.65756713
aF198.39376545
aF198.36839839
aF194.23822189
aF188.53871848
aF179.98326767
aF178.99050007
aF179.23987506
aF177.84030961
aF177.84030961
aF177.10103053
aF177.10103053
aF177.10103053
aF184.6112791
aF184.6112791
aF184.6112791
aF184.47698942
aF183.40177973
aF183.40277972
aF183.41543473
aF201.20560953
aF201.76200418
aF203.03884598
aF222.69484321
aF222.37485221
aF222.37485221
aF220.31303439
asVBTC-QWARK
p411
(lp412
F45.42931675
aF44.18011307
aF39.68794284
aF38.11543074
aF37.69948726
aF34.16188086
aF33.10377954
aF34.55633399
aF32.37979409
aF31.61401509
aF32.42942514
aF30.75564759
aF29.82780912
aF29.5535491
aF29.7474301
aF30.31183295
aF29.65302456
aF29.04066389
aF29.10264717
aF28.87240601
aF28.87240601
aF28.44912599
aF28.06520651
aF27.84053791
aF27.73275349
aF27.73542191
aF27.43576772
aF27.35392753
aF27.27583342
aF27.08429178
aF26.8962619
aF26.99573163
aF27.05990777
aF26.98570663
aF25.71005562
aF26.0651325
aF25.07516669
aF24.78363847
asVBTC-EMC
p413
(lp414
F39.17627241
aF38.98305311
aF38.80845318
aF38.70619868
aF39.33469176
aF39.56702791
aF39.35616926
aF39.3605338
aF39.13149272
aF38.39966793
aF37.97067142
aF37.80936472
aF37.16163286
aF37.23822749
aF36.2569354
aF35.42753572
aF35.46202592
aF34.67217962
aF34.40375117
aF33.98699046
aF33.99219735
aF34.76001562
aF34.87151346
aF34.82115088
aF34.88720254
aF35.24886049
aF35.25090319
aF35.24060323
aF35.22558508
aF35.88372396
aF35.9379818
aF36.60949054
aF36.47471859
aF36.48528598
aF36.61019479
aF36.65504405
aF36.58560162
aF36.99836303
asVBTC-LSK
p415
(lp416
F2137.34819646
aF2086.96290282
aF2042.92451491
aF1980.01105203
aF1881.61246518
aF1810.35632525
aF1795.362655
aF1714.94476832
aF1665.07887297
aF1627.7149028
aF1591.75341923
aF1552.14799967
aF1545.48396937
aF1523.74085363
aF1517.87862108
aF1488.64223317
aF1454.67325885
aF1399.41882715
aF1367.07497064
aF1342.77866012
aF1300.9687044
aF1298.83937791
aF1272.4157526
aF1264.12444939
aF1253.75494156
aF1234.37153595
aF1227.63836911
aF1216.76090787
aF1206.14110346
aF1194.98685261
aF1196.44727697
aF1198.1293352
aF1195.49954437
aF1180.08941412
aF1174.11494536
aF1157.76550961
aF1162.19021252
aF1156.8368983
asVBTC-GAM
p417
(lp418
F4.68154117
aF4.75872378
aF3.27149953
aF3.26936513
aF3.26936513
aF3.28306057
aF3.35303808
aF3.3321694
aF3.4222592
aF3.4222592
aF3.42174953
aF3.425444
aF3.4245619
aF3.2532563
aF3.28129716
aF3.28129716
aF3.28129716
aF3.24672482
aF3.27493678
aF3.19893644
aF3.19893644
aF3.16652824
aF3.1657969
aF3.1657969
aF3.1657969
aF3.06737022
aF3.06737022
aF3.06737022
aF3.07875087
aF3.07875087
aF2.96762612
aF2.98921672
aF2.99334672
aF2.98868222
aF2.98945173
aF2.98945173
aF2.99144672
aF2.99144672
asVBTC-PART
p419
(lp420
F31.83831664
aF28.41839986
aF28.34034395
aF27.88524938
aF27.65565593
aF27.31394304
aF27.69337195
aF27.68546452
aF27.65871836
aF27.33914562
aF27.05903859
aF36.75279247
aF38.40810119
aF38.79540066
aF38.59367842
aF38.62726165
aF38.62999079
aF38.6466178
aF37.48292629
aF37.46852221
aF37.9979775
aF37.78726787
aF37.66256754
aF38.02586669
aF38.55066449
aF38.93884176
aF38.93884176
aF38.70381178
aF38.59796552
aF38.69116393
aF42.99483773
aF42.99451312
aF43.00319109
aF42.8679319
aF43.08923345
aF43.24737915
aF43.26806927
aF43.95009194
asVBTC-APX
p421
(lp422
F14.30617273
aF14.22946482
aF14.22946482
aF13.91421681
aF13.55912817
aF13.55912817
aF13.09757418
aF13.44259297
aF13.44259297
aF13.26531046
aF13.20387677
aF13.20387677
aF12.87075995
aF12.94993641
aF12.48239227
aF12.41728185
aF12.92801093
aF12.92999448
aF13.43197943
aF13.53415757
aF13.54098912
aF13.53101425
aF13.5410142
aF13.5410142
aF12.97322761
aF12.97322761
aF12.92346586
aF12.82609715
aF12.75161441
aF12.75153206
aF12.73998117
aF12.73998117
aF12.63072444
aF12.59385783
aF12.63076846
aF12.64291439
aF12.57777766
aF12.57777766
asVETH-MTL
p423
(lp424
F562.27995503
aF545.85581012
aF545.69862164
aF533.53494657
aF533.53494657
aF492.20623258
aF491.48668834
aF473.59648717
aF473.59648717
aF463.10762988
aF463.10762988
aF418.49947923
aF421.94481356
aF350.09012322
aF349.14193663
aF345.15954801
aF349.9485723
aF333.04921088
aF333.04921088
aF353.49575658
aF355.26859296
aF355.26859296
aF354.9373055
aF356.07846237
aF356.07846237
aF356.07846237
aF343.4554761
aF342.73122272
aF342.73122272
aF341.56256945
aF339.40541669
aF319.74057322
aF319.86390725
aF314.93587039
aF312.5874237
aF311.91059815
aF307.25103621
aF307.25103621
asVBTC-BCY
p425
(lp426
F22.86062482
aF22.63523351
aF22.39819386
aF22.39819386
aF22.286148
aF21.85520584
aF21.49676651
aF21.48355332
aF20.87752666
aF20.87752666
aF20.85024498
aF20.83110406
aF20.83287865
aF20.83287865
aF20.64308104
aF19.92644896
aF19.87720919
aF19.87720919
aF19.86734304
aF19.256026
aF19.24209051
aF18.49968335
aF18.49968335
aF18.43421579
aF18.43421579
aF18.24237914
aF17.8767762
aF16.20213792
aF16.20213792
aF15.80364166
aF15.13706297
aF15.15131297
aF14.32129224
aF14.32030864
aF14.27982573
aF14.43051293
aF14.43717317
aF14.43717317
asVBTC-EXCL
p427
(lp428
F92.69753081
aF94.16133589
aF94.77766318
aF97.69976361
aF100.74263212
aF100.87672895
aF101.08619681
aF101.33984987
aF101.71435765
aF102.1428796
aF102.68197468
aF103.66406662
aF103.84677633
aF104.22032003
aF104.50512244
aF104.99243273
aF106.21398042
aF105.67486523
aF107.04361992
aF107.37244335
aF107.45708314
aF107.0187193
aF107.15952634
aF108.03111144
aF107.34974126
aF107.74886383
aF107.88769134
aF108.02826292
aF108.36570144
aF108.38399584
aF107.76893889
aF107.54051437
aF104.97763213
aF104.9837716
aF104.23842005
aF104.35634317
aF105.43822765
aF105.62423374
asVBTC-SPHR
p429
(lp430
F9.23623742
aF9.23024596
aF8.87405772
aF8.49559878
aF6.46194954
aF6.46109398
aF6.47111136
aF6.46301061
aF6.4341061
aF6.4341061
aF6.46363729
aF6.47022522
aF6.46450658
aF6.46450658
aF6.46450658
aF6.45338864
aF6.42885917
aF6.42885917
aF6.42940917
aF6.42940917
aF6.40731816
aF6.40731816
aF6.40731816
aF6.35661419
aF6.35661419
aF6.22195778
aF6.24276709
aF6.31920652
aF6.34628161
aF6.34628161
aF6.34684021
aF6.34684021
aF6.34684021
aF6.34684021
aF6.35718424
aF6.35718424
aF6.35718424
aF6.35718424
asVBTC-PAY
p431
(lp432
F1490.96517274
aF1455.59264704
aF1410.01225236
aF1367.72397781
aF1325.067982
aF1267.4816511
aF1217.20740848
aF1185.0962959
aF1133.28075502
aF1115.79223939
aF1099.33496772
aF1086.82476938
aF1079.76794645
aF1077.4792113
aF1059.92128591
aF1043.51312454
aF1031.16703442
aF1015.35639986
aF1005.56207024
aF998.21072852
aF986.42490416
aF978.75216002
aF973.00274954
aF965.67011251
aF961.45208314
aF963.34921215
aF961.35595444
aF960.67292045
aF956.8006156
aF951.34426184
aF946.33359053
aF940.72619011
aF931.48137821
aF926.53592206
aF914.17468505
aF911.18777826
aF906.42392214
aF909.68778924
asVBTC-FTC
p433
(lp434
F6.55075005
aF6.55646987
aF6.53145714
aF6.49872534
aF6.49872534
aF6.11073728
aF6.07622831
aF6.05139182
aF6.05139182
aF6.03815182
aF6.03243754
aF6.03145777
aF6.03145777
aF5.89919545
aF5.90766186
aF5.61144458
aF5.61144458
aF5.61093769
aF5.52282483
aF5.52282483
aF5.52282483
aF5.65301733
aF5.60993624
aF5.60931884
aF5.60570385
aF5.60570385
aF5.59226385
aF5.47752213
aF5.47752213
aF5.45726864
aF5.46384976
aF7.98339229
aF8.27931122
aF8.27931122
aF8.27928683
aF8.29148334
aF8.05621764
aF8.05621764
asVBTC-VRM
p435
(lp436
F7.87197037
aF7.9414773
aF7.93218066
aF7.80921766
aF7.80921766
aF6.94693021
aF6.88591809
aF7.90446242
aF8.46774686
aF8.48620807
aF8.68759217
aF8.91871802
aF8.92170809
aF8.96994564
aF9.22243985
aF9.0204682
aF9.02116188
aF9.0357723
aF9.04661695
aF8.09169317
aF8.09799142
aF8.2870359
aF8.34150096
aF8.33474172
aF8.33474172
aF8.33474172
aF8.33474172
aF8.33474172
aF8.27987388
aF8.27987388
aF8.3008533
aF8.3008533
aF8.33722093
aF8.3609042
aF8.3659316
aF8.36511294
aF8.39372571
aF8.39372571
asVBTC-BITB
p437
(lp438
F19.96627053
aF19.96543474
aF15.1456041
aF15.70568356
aF15.69037408
aF15.19847837
aF15.19683138
aF15.13201124
aF15.10429014
aF15.20094389
aF15.22076075
aF15.22696937
aF15.22696937
aF15.33069293
aF15.33437893
aF15.41669749
aF15.73167159
aF15.73167159
aF15.84593952
aF15.94950639
aF15.94889326
aF16.13660412
aF16.12054729
aF16.11935159
aF16.09477172
aF16.12777721
aF16.12777721
aF16.250317
aF16.23245994
aF16.20723669
aF16.41251403
aF16.42290834
aF16.30877889
aF16.30890889
aF16.40995888
aF16.41507888
aF16.41507888
aF16.68469513
asVBTC-BTS
p439
(lp440
F655.86507406
aF648.008495
aF629.24571642
aF611.53268806
aF595.98254876
aF589.96878001
aF585.08196316
aF566.15921537
aF555.00749769
aF548.34817314
aF541.19600377
aF537.00410896
aF535.36688439
aF526.36422054
aF518.35298665
aF515.23494908
aF514.06074944
aF505.0307242
aF495.74534764
aF489.62960997
aF480.14816481
aF475.69356497
aF474.66259727
aF475.94283704
aF477.31358176
aF472.77261921
aF472.77273694
aF471.62770586
aF463.31174669
aF462.00842886
aF452.11396979
aF448.09920091
aF443.70443255
aF441.25280477
aF439.79845468
aF434.90062151
aF437.26550446
aF432.64113992
asVETH-ZEC
p441
(lp442
F1810.01806708
aF1810.53195579
aF1790.97915717
aF1790.97915717
aF1771.36586989
aF1731.6655976
aF1675.81868025
aF1645.05925531
aF1633.29923516
aF1637.24194318
aF1637.24194318
aF1596.98189448
aF1531.6296523
aF1529.90224397
aF1558.42009704
aF1558.42009704
aF1543.9219932
aF1492.42274603
aF1492.42274603
aF1492.14730862
aF1479.53179793
aF1479.53179793
aF1479.54512119
aF1481.38170056
aF1481.38170056
aF1481.73727256
aF1481.67257158
aF1483.92311839
aF1486.55073514
aF1473.10530467
aF1473.10530467
aF1439.71060984
aF1439.71060984
aF1439.68856681
aF1440.25683892
aF1395.85271307
aF1395.85231826
aF1395.85231826
asVETH-BNT
p443
(lp444
F322.46168101
aF322.46168101
aF322.46268099
aF322.46368097
aF322.46418096
aF321.5936764
aF321.5936764
aF268.03603484
aF137.66848532
aF137.66848532
aF102.20362181
aF109.35173444
aF109.37351316
aF109.37401315
aF109.37401315
aF50.72922594
aF50.72972593
aF48.31881474
aF49.13445526
aF49.17577263
aF49.75788625
aF49.76764456
aF41.12703543
aF41.39831612
aF40.79780717
aF40.79780717
aF40.79204986
aF40.78242042
aF40.78242042
aF40.20644358
aF40.19920784
aF40.19920784
aF40.19482944
aF40.19482944
aF40.19060951
aF40.1864668
aF40.18246295
aF40.17874015
asVBTC-XST
p445
(lp446
F2.15128941
aF2.15128941
aF2.13141241
aF2.13750766
aF2.13750766
aF2.08942738
aF1.97459755
aF1.97459755
aF1.92632006
aF1.92597411
aF1.90020641
aF1.91043041
aF1.89354049
aF1.89354049
aF1.89643074
aF1.8954372
aF1.74207432
aF1.74207432
aF1.70629106
aF1.70629106
aF1.70629106
aF1.70123756
aF1.70123756
aF1.73155678
aF1.73931351
aF1.9161784
aF1.9161784
aF1.8839674
aF1.8074738
aF1.8074738
aF1.77905389
aF1.79092515
aF1.78066959
aF1.78066959
aF1.78066959
aF1.73532722
aF1.76490454
aF1.76511562
asVBTC-BCC
p447
(lp448
F2741.64238235
aF2700.6454468
aF2614.97601115
aF2559.75856264
aF2412.5184844
aF2291.94533946
aF2190.00957663
aF2118.01123672
aF2060.63878803
aF1977.71127
aF1919.3963804
aF1867.10616073
aF1855.45219913
aF1826.21147054
aF1824.17280909
aF1793.55302752
aF1738.47233068
aF1706.73953289
aF1697.26134768
aF1701.162198
aF1616.36647801
aF1577.96323274
aF1561.71832996
aF1546.12420227
aF1540.8102633
aF1506.12470257
aF1494.49073392
aF1478.50941745
aF1478.22762704
aF1468.92512435
aF1463.10467149
aF1439.96425809
aF1385.77614694
aF1375.26552715
aF1384.15204472
aF1315.06278336
aF1308.07700751
aF1279.09127285
asVBTC-REP
p449
(lp450
F46.35521336
aF45.70918173
aF42.05836014
aF39.71409106
aF38.60481707
aF33.60915379
aF33.60915379
aF26.3580755
aF23.51116151
aF23.33618506
aF22.89819039
aF22.89819039
aF22.75976097
aF22.50760369
aF22.3788941
aF21.15094145
aF20.43395036
aF20.34571961
aF20.34571961
aF20.0088352
aF19.52652284
aF19.57072108
aF19.57072108
aF19.90113745
aF19.7900837
aF20.10793217
aF18.69259704
aF18.6952752
aF18.60815669
aF18.67988128
aF19.30233173
aF19.41129531
aF19.41129531
aF18.53748076
aF18.56034045
aF18.55480247
aF18.55480247
aF17.89446469
asVBTC-BTCD
p451
(lp452
F99.53239876
aF95.13862314
aF90.92764327
aF82.68686505
aF79.11107921
aF77.81243104
aF77.1838817
aF74.30027712
aF69.75043704
aF65.54526544
aF62.19391181
aF60.34835483
aF58.21368136
aF56.26985137
aF49.1699926
aF49.1699926
aF42.62141276
aF42.71230883
aF43.41016917
aF43.46189375
aF39.57369882
aF39.11957293
aF34.67744871
aF33.20504836
aF32.82013883
aF32.70074796
aF32.69522148
aF32.29971387
aF32.29971387
aF31.74589423
aF31.43208495
aF31.52262331
aF31.75111865
aF31.88024356
aF31.82252845
aF31.92355634
aF32.21977798
aF31.75864668
asVBTC-BTA
p453
(lp454
F17.25168556
aF17.19981678
aF17.33132432
aF17.32814395
aF17.23738944
aF16.40702943
aF16.48633266
aF16.48633266
aF16.39885405
aF16.26572644
aF16.29192322
aF16.52357357
aF16.50880244
aF16.51528273
aF16.63746355
aF16.66167979
aF16.69953794
aF16.71183994
aF16.7061296
aF16.70854863
aF16.78496378
aF16.79697074
aF16.89040972
aF17.08070441
aF17.08070441
aF17.09089466
aF17.09430963
aF17.09961716
aF16.86581961
aF16.86654587
aF16.85657175
aF16.85657175
aF16.85814016
aF16.84961192
aF16.87141849
aF16.70417006
aF16.79353041
aF16.6638922
asVETH-RLC
p455
(lp456
F117.87895382
aF117.87895382
aF116.09697729
aF116.09697729
aF116.44508611
aF116.44508611
aF114.32088704
aF111.49738565
aF111.49738565
aF107.44849044
aF99.04488723
aF99.04488723
aF99.04488723
aF99.04488723
aF103.6185471
aF104.54187726
aF104.54187726
aF104.54187726
aF104.54187726
aF104.54187726
aF81.00898023
aF81.04547274
aF81.40578274
aF81.40578274
aF81.98192796
aF81.98192796
aF81.98192796
aF81.98192796
aF82.77543909
aF82.77735159
aF88.64682454
aF88.64682454
aF89.20369492
aF89.20369492
aF89.20369492
aF89.20369492
aF89.20369492
aF87.10103709
asVBTC-CRB
p457
(lp458
F9.43761712
aF9.3485185
aF8.9549048
aF8.9549048
aF8.69941175
aF8.36640231
aF8.26593005
aF8.18398853
aF8.97455443
aF9.5348356
aF9.53654735
aF9.5602143
aF9.66539566
aF9.7399424
aF9.85840623
aF9.94536654
aF9.97215246
aF10.49012693
aF10.48418314
aF10.48271266
aF10.60096713
aF10.60096713
aF10.59946258
aF10.36554449
aF10.36554449
aF10.23811499
aF10.17392586
aF10.17392586
aF10.17392586
aF10.16505578
aF9.95520222
aF10.01073243
aF10.01073243
aF10.0087491
aF10.0087491
aF10.01781757
aF9.99992356
aF9.99992356
asVBTC-RLC
p459
(lp460
F61.50174621
aF60.91884633
aF59.14508587
aF58.86858436
aF57.83840447
aF52.29932712
aF49.75610146
aF48.50592393
aF47.0758945
aF45.94744927
aF46.59789073
aF46.74820799
aF46.34550037
aF47.37562247
aF50.36122933
aF50.89500852
aF53.27535355
aF54.31424949
aF58.20230249
aF57.66156092
aF59.09301492
aF58.80027293
aF59.42270584
aF57.92027738
aF58.11721631
aF57.02903229
aF56.84294859
aF57.20622361
aF57.19260759
aF57.09445229
aF57.69598614
aF57.74253963
aF58.16827441
aF58.19764775
aF58.19807829
aF58.29652705
aF58.06468184
aF57.87835631
asVBTC-ERC
p461
(lp462
F36.24996601
aF37.45988074
aF40.62516931
aF40.70658179
aF41.69963968
aF45.52777307
aF49.2512998
aF50.63931054
aF51.69138156
aF50.68527347
aF50.73867161
aF50.0015139
aF49.20544376
aF46.31584562
aF45.13296575
aF45.04897075
aF45.44810789
aF45.4132755
aF45.2019863
aF44.9449936
aF44.81039824
aF44.95632876
aF44.87021427
aF44.28489883
aF44.37186879
aF44.78706985
aF44.55504482
aF43.2023838
aF43.0909532
aF43.08303893
aF43.26094386
aF43.30126439
aF43.29764586
aF42.8257409
aF43.07777562
aF43.08466423
aF43.00960716
aF43.00960716
asVBTC-BRK
p463
(lp464
F1.82608963
aF1.81865547
aF1.76236096
aF1.68098872
aF1.68098872
aF1.61588013
aF1.61588013
aF1.56326148
aF1.49122198
aF1.49122198
aF1.47330177
aF1.47402016
aF1.48196732
aF1.44193527
aF1.44193527
aF1.44193527
aF1.44193527
aF1.35141325
aF1.32335225
aF1.32335225
aF1.32335225
aF1.32335225
aF1.32335225
aF1.32265065
aF1.32265065
aF1.32951198
aF1.33858365
aF1.31841164
aF1.31841164
aF1.29366665
aF1.29366665
aF1.29366665
aF1.31923447
aF1.31726461
aF1.31726461
aF1.32627085
aF1.32627085
aF1.32450335
asVBTC-NAV
p465
(lp466
F644.53147438
aF640.52140736
aF630.34924451
aF613.49891172
aF585.4766925
aF551.67310051
aF521.75726851
aF490.87761701
aF462.10301914
aF455.38799962
aF438.62214385
aF427.80580076
aF417.01616295
aF398.11068456
aF376.34785788
aF370.50690252
aF365.87043434
aF368.06062189
aF366.46504967
aF361.06962925
aF361.79131705
aF361.57047113
aF357.52091468
aF373.00059963
aF382.38869854
aF383.97834902
aF388.56788611
aF388.82278515
aF388.02644503
aF387.3440884
aF390.8717927
aF390.55951233
aF388.18219392
aF388.45783567
aF388.51995305
aF385.50864209
aF376.30384036
aF372.29217637
asVBTC-PKB
p467
(lp468
F4.74793365
aF4.67137447
aF4.65350814
aF4.65350814
aF4.3830514
aF4.24518362
aF4.58044903
aF4.3619971
aF4.1417628
aF4.12392478
aF4.12392478
aF4.0825115
aF4.0819615
aF4.08072757
aF4.08219229
aF4.08162733
aF4.08162733
aF4.08217733
aF4.07544535
aF4.07001169
aF4.14046546
aF4.14046546
aF4.13961375
aF4.09565646
aF4.09467438
aF4.25717714
aF4.26903414
aF4.27153409
aF4.27203408
aF4.27203408
aF4.2411646
aF4.2411646
aF4.23691647
aF4.23741589
aF4.19413721
aF4.19413721
aF4.19301028
aF3.9941285
asVBTC-TRIG
p469
(lp470
F923.5552551
aF925.10828891
aF915.08899696
aF908.50922211
aF890.12072389
aF871.04076943
aF843.66753921
aF814.69730981
aF812.90334235
aF802.78723797
aF795.37320173
aF784.19451661
aF784.36555568
aF781.74698131
aF770.52015901
aF768.48943318
aF762.23000955
aF760.88050871
aF755.5771237
aF750.59786633
aF749.54436939
aF744.89999603
aF745.03107838
aF743.79742755
aF742.02927397
aF740.95253094
aF739.18326917
aF732.31503406
aF733.06655898
aF720.58367851
aF693.1373523
aF679.6631162
aF669.59144936
aF660.1870227
aF644.48756408
aF608.38841102
aF600.84664809
aF577.94020962
asVETH-REP
p471
(lp472
F126.44778146
aF121.66230502
aF121.66230502
aF117.38030281
aF113.31562563
aF113.31562563
aF113.31562563
aF113.23879381
aF113.23879381
aF70.74355193
aF70.74355193
aF70.74355193
aF70.74355193
aF66.33028881
aF67.82488101
aF67.82488101
aF64.25641633
aF64.25641633
aF64.25541052
aF64.25541052
aF64.25541052
aF64.2462442
aF64.2462442
aF64.2462442
aF64.2462442
aF64.2462442
aF64.2462442
aF64.2462442
aF63.2503037
aF63.34056537
aF64.91862549
aF66.75691161
aF66.75691161
aF61.62596099
aF61.62596099
aF61.06843131
aF61.06843131
aF61.59335935
asVBTC-OMG
p473
(lp474
F7254.9535464
aF7201.07966529
aF7110.42359969
aF6918.62641287
aF6851.50656237
aF6638.75052355
aF6458.00314053
aF6272.66447257
aF6200.41050565
aF6167.88635554
aF6093.76497743
aF6006.61835764
aF5996.39084751
aF5936.83152568
aF5855.72622817
aF5796.11673757
aF5773.6662843
aF5748.94075604
aF5769.94502612
aF5781.45443024
aF5734.78680005
aF5698.99789044
aF5684.25273518
aF5735.88557656
aF5709.76434457
aF5605.03421868
aF5583.42032101
aF5534.61239359
aF5571.91633576
aF5659.95032686
aF5690.33016146
aF5670.10788843
aF5675.77332488
aF5652.77032163
aF5636.00107011
aF5626.69286363
aF5586.54774265
aF5561.51470747
asVBTC-GBG
p475
(lp476
F1.89258065
aF1.98326454
aF1.96845146
aF1.97986286
aF2.01600032
aF2.01600032
aF1.97529793
aF1.97558908
aF1.9692551
aF2.01147679
aF2.01147679
aF1.96584435
aF1.91753893
aF1.86316976
aF2.06430213
aF2.06430213
aF1.99770718
aF1.99770718
aF1.97718792
aF2.0266596
aF2.0282943
aF2.03030508
aF2.00834812
aF2.02147086
aF2.00497467
aF2.00497467
aF1.99588005
aF1.98424386
aF1.98424386
aF1.98700731
aF1.98700731
aF1.98020836
aF1.9639836
aF1.94123649
aF1.99214484
aF2.00166801
aF1.90615215
aF1.93255515
asVBTC-XZC
p477
(lp478
F219.89176876
aF219.24359573
aF216.37476059
aF216.36166855
aF215.95923968
aF215.79377851
aF210.1368137
aF216.26434881
aF213.15175042
aF213.49215447
aF214.47539793
aF216.63321706
aF218.86500868
aF218.6259965
aF217.79058353
aF215.63243491
aF216.04969152
aF217.31728054
aF217.14233856
aF216.00993453
aF215.13444914
aF216.46308654
aF215.68874513
aF215.71902942
aF214.41220373
aF214.10020132
aF213.24434912
aF213.84214986
aF214.78238391
aF211.95278176
aF213.19483896
aF213.52688002
aF215.44293696
aF214.92759375
aF215.01512785
aF212.9642121
aF215.63821849
aF215.80479142
asVBTC-BRX
p479
(lp480
F4.24174369
aF4.17589572
aF4.15499487
aF4.19260446
aF4.18594442
aF3.89568419
aF3.98004216
aF3.98391455
aF3.98602118
aF4.07334262
aF4.07268109
aF4.07268109
aF4.07268109
aF4.07268109
aF4.11329246
aF4.11329246
aF4.11329246
aF4.12638274
aF4.13543552
aF4.11335529
aF4.11335529
aF4.20219888
aF4.20219888
aF4.20219888
aF4.20219888
aF4.20984308
aF4.18433627
aF4.18433627
aF4.18320015
aF4.18097743
aF4.18097743
aF4.17705016
aF4.19326399
aF4.19591937
aF4.1637058
aF4.17240199
aF4.17739464
aF4.17739464
asVBTC-SYS
p481
(lp482
F679.01040139
aF644.30417751
aF628.98259507
aF604.08080716
aF576.2749321
aF522.31610806
aF498.20923404
aF481.59137357
aF453.69898392
aF441.07547599
aF432.47207885
aF430.2841546
aF414.75995203
aF410.51693767
aF408.22877793
aF412.13164194
aF410.05843892
aF408.1661201
aF409.59132746
aF407.0177494
aF401.2877156
aF396.17060353
aF402.81375489
aF407.86184471
aF414.41292989
aF409.03778371
aF402.1316198
aF396.54317882
aF389.38709306
aF389.9001994
aF390.0459227
aF390.23488209
aF387.70849762
aF387.57463874
aF387.40179943
aF387.25303702
aF381.56188311
aF386.80223782
asVBTC-CRW
p483
(lp484
F8.52615561
aF8.52615561
aF8.42713173
aF9.17884427
aF9.12307457
aF8.89346557
aF9.76425008
aF9.63286396
aF9.63286396
aF9.37926195
aF9.37476463
aF9.40259888
aF9.34586236
aF9.34586236
aF9.33797762
aF9.20558193
aF9.20558193
aF8.9159546
aF9.14433467
aF9.14875408
aF9.06101756
aF8.96311237
aF8.99664113
aF8.95199272
aF10.42357404
aF10.21749108
aF10.12286335
aF10.12286335
aF10.12286335
aF10.09155435
aF9.74273619
aF9.74273619
aF9.67619858
aF9.67508984
aF9.68448196
aF9.68448196
aF9.73422696
aF9.75057207
asVBTC-RDD
p485
(lp486
F154.09838185
aF140.8136034
aF136.3900388
aF130.14955553
aF124.06822359
aF122.86134603
aF115.77834254
aF105.2340385
aF102.66791684
aF102.11151997
aF97.67282608
aF97.72978101
aF97.78157642
aF97.4726407
aF95.96094209
aF94.26899677
aF95.23401991
aF90.27357608
aF90.19769208
aF89.75994344
aF88.45875722
aF87.61739782
aF86.16595758
aF85.89798758
aF85.43123595
aF85.6481071
aF85.76621813
aF85.84313307
aF85.79652089
aF85.81359532
aF86.15398043
aF85.83558787
aF83.77688004
aF84.06327378
aF82.60927871
aF82.92033352
aF82.59604453
aF82.22863583
asVBTC-GAME
p487
(lp488
F387.90685334
aF379.96349882
aF370.01781231
aF357.95475731
aF344.30268422
aF346.85225561
aF337.55213232
aF337.2110037
aF333.67791051
aF324.31379278
aF320.54367223
aF315.65021581
aF314.34977495
aF313.26703434
aF313.56943893
aF312.56907987
aF315.48777624
aF315.14195434
aF314.68327088
aF315.63165504
aF315.53227628
aF310.38924717
aF305.84906591
aF304.47867103
aF304.36646639
aF305.61833874
aF307.21503259
aF303.76645285
aF305.78423431
aF305.88412244
aF304.12468061
aF303.22119481
aF302.26121597
aF299.3606028
aF298.3437893
aF294.29219068
aF293.83474319
aF288.85644662
asVETH-GUP
p489
(lp490
F13.37130868
aF13.37130868
aF15.28774634
aF15.28774634
aF15.27584641
aF15.27584641
aF15.27584641
aF15.18476733
aF15.18476733
aF15.18476733
aF15.18476733
aF15.18476733
aF15.11502069
aF15.11502069
aF15.11502069
aF15.11502069
aF15.11502069
aF15.11502069
aF16.24573502
aF16.24573502
aF16.24573502
aF16.01609775
aF16.01609775
aF16.01609775
aF16.01609775
aF16.01609775
aF16.01609775
aF16.01609775
aF16.01609775
aF16.01609775
aF16.01609775
aF16.01609775
aF16.01609775
aF16.01609775
aF16.01609775
aF16.01609775
aF16.01609775
aF16.01609775
asVBTC-1ST
p491
(lp492
F137.02103682
aF135.0339533
aF134.9870993
aF135.14984483
aF134.11663064
aF127.40868373
aF123.62208389
aF121.46729567
aF118.05843148
aF113.46906394
aF112.21807181
aF110.01722647
aF109.68527092
aF109.18521303
aF110.18022313
aF110.19785688
aF110.2046532
aF108.78259282
aF107.69238309
aF107.03843324
aF105.13719423
aF104.83044459
aF104.14870555
aF103.83814629
aF103.47527106
aF103.17358632
aF101.64088482
aF101.95825865
aF100.41664428
aF100.2591719
aF100.01686291
aF99.79178333
aF98.92654468
aF98.08507861
aF97.17431629
aF95.94936772
aF96.36684009
aF96.44499941
asVUSDT-ETH
p493
(lp494
F16389407.66725641
aF15857838.22469682
aF15614893.52641125
aF15177232.24116186
aF14732298.46149885
aF14089443.25621755
aF13668206.76099606
aF13015281.7199328
aF12633610.45651339
aF12387083.97290488
aF11997411.62981131
aF11568325.04192779
aF11395493.75330059
aF11122600.61641726
aF10933265.35993185
aF10691824.96936188
aF10583604.81828162
aF10280406.10896708
aF9964977.78919677
aF9887493.60126026
aF9769736.72960411
aF9530112.21279814
aF9520017.87740488
aF9505959.64410595
aF9305646.76547125
aF8927420.85785757
aF8844574.86315697
aF8754837.0131301
aF8802325.23451745
aF8774424.36050166
aF8809200.70412661
aF8604511.99113721
aF8514738.12607747
aF8526812.92654929
aF8791113.51090987
aF8832451.51415645
aF8503346.61533848
aF8476144.39456716
asVBTC-VTR
p495
(lp496
F3.44283465
aF3.4296831
aF3.4296831
aF3.33291228
aF3.30353805
aF3.30353805
aF3.60546121
aF3.59654817
aF3.59654817
aF3.7337195
aF3.7337195
aF3.53507293
aF3.47298639
aF3.47298639
aF3.3833952
aF3.36842889
aF3.27216502
aF3.27216502
aF3.23040147
aF3.2064627
aF3.2064627
aF3.20148928
aF3.20209287
aF3.20209287
aF3.15942466
aF2.73129811
aF2.73906141
aF2.73906141
aF2.70915674
aF2.68914953
aF2.70047746
aF2.69947997
aF2.6952868
aF2.6952868
aF2.6952868
aF2.6952868
aF2.69193852
aF2.69193852
asVBTC-EMC2
p497
(lp498
F11.29781012
aF11.25431177
aF11.44053654
aF11.44053654
aF10.49712672
aF10.31344619
aF9.52283139
aF9.37170478
aF9.29728975
aF9.56861078
aF9.59766288
aF9.60085374
aF9.57106471
aF9.56290146
aF9.56145869
aF9.36861774
aF9.26626392
aF9.40985684
aF9.77711246
aF9.83925554
aF9.83925554
aF9.61215412
aF8.94019777
aF9.00753542
aF8.83528444
aF8.83528444
aF8.82900592
aF8.82900592
aF8.8885436
aF8.86999364
aF8.55245416
aF8.53987126
aF8.55893902
aF8.24937169
aF8.15232601
aF8.15232601
aF8.13442225
aF8.52634454
asVBTC-XCP
p499
(lp500
F35.8543796
aF35.74900452
aF35.74900452
aF35.06231482
aF29.50100749
aF29.50100749
aF28.74610464
aF27.39566878
aF27.252016
aF27.36549911
aF26.23094564
aF26.36051746
aF26.37390772
aF26.37390772
aF26.3173648
aF26.30070783
aF26.29959001
aF26.29514539
aF26.29514539
aF25.33417752
aF25.30917298
aF25.26734987
aF25.20528771
aF25.25567723
aF25.00210573
aF25.06321619
aF24.94058957
aF25.09981094
aF25.16736559
aF25.59692219
aF25.59692219
aF24.4910479
aF24.27295061
aF24.28940508
aF24.20090806
aF24.19491426
aF24.40269939
aF24.4656256
asVBTC-SWIFT
p501
(lp502
F24.01193293
aF24.01078825
aF23.97948316
aF23.22357885
aF23.22357885
aF23.05461071
aF23.02868362
aF22.7416499
aF22.57631015
aF22.57631015
aF21.27914553
aF19.39196398
aF18.93944285
aF17.52853144
aF17.32406861
aF17.0809021
aF17.44871678
aF16.4991378
aF16.48881924
aF16.11003275
aF16.11003275
aF15.79650795
aF15.53888231
aF15.53969934
aF10.79098384
aF10.63307039
aF10.55739059
aF10.71848956
aF10.66571866
aF10.66571866
aF9.12598071
aF9.45673613
aF9.37398209
aF8.77917473
aF8.70343066
aF8.97941613
aF8.94805792
aF8.89730613
asVBTC-THC
p503
(lp504
F4.4675211
aF4.29035241
aF4.27872801
aF4.27872801
aF4.17974626
aF4.16074795
aF4.16074795
aF4.01772338
aF3.85549468
aF3.85549468
aF3.78743153
aF3.81013153
aF4.00553035
aF3.83287327
aF3.83287327
aF3.81902846
aF3.86328476
aF3.86328476
aF3.81002656
aF3.89874816
aF3.96169303
aF4.24383715
aF4.26320604
aF4.27010604
aF4.27010604
aF4.27398044
aF4.30969545
aF4.11999508
aF4.12049383
aF4.12049383
aF4.12397869
aF4.04386071
aF4.05832456
aF4.14734934
aF4.14275566
aF4.16525251
aF4.16581111
aF4.21690571
asVETH-STRAT
p505
(lp506
F619.61979427
aF570.6402704
aF541.61330361
aF459.54215762
aF445.96818328
aF343.48934891
aF333.65231831
aF326.22903516
aF339.09783187
aF319.55428885
aF319.55428885
aF319.55254063
aF324.59329533
aF322.59327098
aF322.59327098
aF417.24476932
aF417.24476932
aF416.47453252
aF417.18747562
aF443.49456985
aF447.39366944
aF447.60412445
aF447.60412445
aF447.60412445
aF448.0013768
aF447.47058614
aF447.58123482
aF448.21022088
aF448.21022088
aF440.2611973
aF438.75214197
aF438.75214197
aF412.16891519
aF410.30579716
aF485.11752409
aF485.11752409
aF481.1360161
aF476.54742998
asVBTC-VTC
p507
(lp508
F218.53282737
aF218.49873133
aF212.685045
aF212.51077514
aF209.00143652
aF206.52849418
aF205.73118411
aF201.99363131
aF195.92948666
aF198.35689051
aF196.46840454
aF193.61521307
aF190.61537167
aF190.43939567
aF189.77239563
aF179.80211092
aF178.43366153
aF174.85769686
aF173.02720557
aF172.55494434
aF172.28110639
aF171.83433721
aF171.93742027
aF168.41227767
aF169.69018655
aF166.41886918
aF165.47410881
aF161.00626837
aF161.42853423
aF160.34831665
aF160.94101155
aF161.67214804
aF161.08573908
aF156.22198379
aF154.34749109
aF149.22071847
aF149.25075699
aF148.2457992
asVBTC-VRC
p509
(lp510
F24.31853605
aF24.20507129
aF24.21920565
aF24.18798015
aF24.02191293
aF23.78173102
aF20.73661588
aF21.12853673
aF20.01061824
aF20.01061824
aF19.83672392
aF19.35617573
aF19.82505639
aF20.61211757
aF20.8345884
aF20.78122943
aF20.74705113
aF20.300367
aF21.26042797
aF21.26540486
aF20.99540882
aF22.16505109
aF22.33596735
aF21.86522903
aF21.82971717
aF21.85578664
aF21.73752256
aF21.66089099
aF21.62012609
aF21.61707452
aF20.18114172
aF20.20525492
aF20.20462494
aF20.1857213
aF20.14864238
aF20.14984694
aF20.14984694
aF20.19124933
asVBTC-ZCL
p511
(lp512
F57.03282475
aF56.67843033
aF56.32057556
aF56.27950792
aF55.56798899
aF52.87776916
aF52.03283707
aF51.41075526
aF51.14888718
aF51.18568151
aF51.29062518
aF51.3499801
aF52.28065972
aF52.29048914
aF51.72396358
aF50.31611701
aF50.6421549
aF50.63391911
aF50.06449254
aF50.20600696
aF49.72631898
aF49.82837009
aF49.96355324
aF49.94608127
aF49.94669832
aF48.99976026
aF46.05204318
aF45.43946254
aF44.78717944
aF41.78949728
aF41.78949728
aF40.65975635
aF39.22953114
aF39.26503895
aF36.32622541
aF38.08931926
aF37.73842553
aF37.73842553
asVBTC-XRP
p513
(lp514
F1202.48542299
aF1191.01822852
aF1178.20610171
aF1144.20832455
aF1118.18844537
aF1098.38189984
aF1032.85239077
aF961.71723312
aF939.82794794
aF938.61837464
aF921.57515809
aF897.23680637
aF887.210075
aF879.84883353
aF871.4168292
aF859.78028236
aF850.96070766
aF837.71327078
aF825.45547343
aF821.96214692
aF818.13547415
aF811.15431793
aF804.77761288
aF800.67414382
aF800.21412613
aF801.38716742
aF799.03753646
aF791.3863672
aF786.34563267
aF791.84111847
aF803.53753127
aF800.55715859
aF789.84924427
aF786.590394
aF793.5176386
aF786.22892559
aF777.43722328
aF771.45229935
as.